SF:/app/src/config.rs
FN:122,_RNvNtCs5LEo9ZyIjY9_12speicherwald6config24ensure_sqlite_parent_dir
FN:80,_RNvNtCs5LEo9ZyIjY9_12speicherwald6config4load
FN:102,_RNvNtCs5LEo9ZyIjY9_12speicherwald6config8validate
FN:54,_RNvXNtCs5LEo9ZyIjY9_12speicherwald6configNtB2_9AppConfigNtNtCs1p5UDGgVI4d_4core7default7Default7default
FN:68,_RNvXs_NtCs5LEo9ZyIjY9_12speicherwald6configNtB4_13ScannerConfigNtNtCs1p5UDGgVI4d_4core7default7Default7default
FN:122,_RNvNtCs7btOnopyFbT_12speicherwald6config24ensure_sqlite_parent_dir
FN:80,_RNvNtCs7btOnopyFbT_12speicherwald6config4load
FN:102,_RNvNtCs7btOnopyFbT_12speicherwald6config8validate
FN:54,_RNvXNtCs7btOnopyFbT_12speicherwald6configNtB2_9AppConfigNtNtCs1p5UDGgVI4d_4core7default7Default7default
FN:68,_RNvXs_NtCs7btOnopyFbT_12speicherwald6configNtB4_13ScannerConfigNtNtCs1p5UDGgVI4d_4core7default7Default7default
FNDA:0,_RNvNtCs5LEo9ZyIjY9_12speicherwald6config24ensure_sqlite_parent_dir
FNDA:0,_RNvNtCs5LEo9ZyIjY9_12speicherwald6config4load
FNDA:0,_RNvNtCs5LEo9ZyIjY9_12speicherwald6config8validate
FNDA:0,_RNvXNtCs5LEo9ZyIjY9_12speicherwald6configNtB2_9AppConfigNtNtCs1p5UDGgVI4d_4core7default7Default7default
FNDA:0,_RNvXs_NtCs5LEo9ZyIjY9_12speicherwald6configNtB4_13ScannerConfigNtNtCs1p5UDGgVI4d_4core7default7Default7default
FNDA:0,_RNvNtCs7btOnopyFbT_12speicherwald6config24ensure_sqlite_parent_dir
FNDA:0,_RNvNtCs7btOnopyFbT_12speicherwald6config4load
FNDA:0,_RNvNtCs7btOnopyFbT_12speicherwald6config8validate
FNDA:0,_RNvXNtCs7btOnopyFbT_12speicherwald6configNtB2_9AppConfigNtNtCs1p5UDGgVI4d_4core7default7Default7default
FNDA:0,_RNvXs_NtCs7btOnopyFbT_12speicherwald6configNtB4_13ScannerConfigNtNtCs1p5UDGgVI4d_4core7default7Default7default
FNF:5
FNH:0
DA:54,0
DA:56,0
DA:57,0
DA:58,0
DA:59,0
DA:60,0
DA:61,0
DA:62,0
DA:63,0
DA:64,0
DA:68,0
DA:70,0
DA:71,0
DA:72,0
DA:73,0
DA:74,0
DA:75,0
DA:76,0
DA:77,0
DA:80,0
DA:82,0
DA:84,0
DA:85,0
DA:86,0
DA:88,0
DA:90,0
DA:91,0
DA:92,0
DA:94,0
DA:96,0
DA:97,0
DA:98,0
DA:99,0
DA:100,0
DA:102,0
DA:104,0
DA:105,0
DA:106,0
DA:109,0
DA:110,0
DA:111,0
DA:112,0
DA:113,0
DA:114,0
DA:117,0
DA:119,0
DA:120,0
DA:122,0
DA:123,0
DA:134,0
DA:135,0
DA:136,0
DA:137,0
DA:138,0
DA:139,0
DA:140,0
BRF:0
BRH:0
LF:56
LH:0
end_of_record
SF:/app/src/db.rs
FN:3,_RNCNvNtCs5LEo9ZyIjY9_12speicherwald2db7init_db0B5_
FN:3,_RNvNtCs5LEo9ZyIjY9_12speicherwald2db7init_db
FN:3,_RNCNvNtCs7btOnopyFbT_12speicherwald2db7init_db0B5_
FN:3,_RNvNtCs7btOnopyFbT_12speicherwald2db7init_db
FNDA:0,_RNCNvNtCs5LEo9ZyIjY9_12speicherwald2db7init_db0B5_
FNDA:0,_RNvNtCs5LEo9ZyIjY9_12speicherwald2db7init_db
FNDA:0,_RNCNvNtCs7btOnopyFbT_12speicherwald2db7init_db0B5_
FNDA:0,_RNvNtCs7btOnopyFbT_12speicherwald2db7init_db
FNF:2
FNH:0
DA:3,0
DA:5,0
DA:6,0
DA:7,0
DA:9,0
DA:11,0
DA:12,0
DA:14,0
DA:17,0
DA:18,0
DA:19,0
DA:20,0
DA:21,0
DA:22,0
DA:23,0
DA:24,0
DA:25,0
DA:26,0
DA:27,0
DA:28,0
DA:29,0
DA:30,0
DA:31,0
DA:32,0
DA:33,0
DA:36,0
DA:37,0
DA:38,0
DA:39,0
DA:40,0
DA:41,0
DA:42,0
DA:43,0
DA:44,0
DA:45,0
DA:46,0
DA:47,0
DA:48,0
DA:51,0
DA:52,0
DA:53,0
DA:54,0
DA:55,0
DA:56,0
DA:57,0
DA:58,0
DA:59,0
DA:60,0
DA:61,0
DA:62,0
DA:63,0
DA:64,0
DA:65,0
DA:66,0
DA:67,0
DA:70,0
DA:71,0
DA:72,0
DA:73,0
DA:74,0
DA:75,0
DA:76,0
DA:77,0
DA:78,0
DA:79,0
DA:80,0
DA:81,0
DA:82,0
DA:85,0
DA:86,0
DA:87,0
DA:88,0
DA:89,0
DA:90,0
DA:91,0
DA:92,0
DA:93,0
DA:94,0
DA:95,0
DA:96,0
DA:97,0
DA:98,0
DA:99,0
DA:100,0
DA:101,0
DA:102,0
DA:103,0
DA:104,0
DA:106,0
DA:107,0
DA:108,0
DA:109,0
DA:110,0
DA:111,0
DA:112,0
DA:113,0
DA:114,0
DA:115,0
DA:116,0
DA:117,0
DA:118,0
DA:119,0
DA:121,0
DA:122,0
BRF:0
BRH:0
LF:105
LH:0
end_of_record
SF:/app/src/error.rs
FN:179,_RNCNvXININtCs5LEo9ZyIjY9_12speicherwald5errors5_0pEINtNtCs1p5UDGgVI4d_4core6option6OptionpEINtB7_9OptionExtpE15ok_or_not_found0B9_
FN:188,_RNvNtNtCs5LEo9ZyIjY9_12speicherwald5error10validation13validate_path
FN:218,_RNvNtNtCs5LEo9ZyIjY9_12speicherwald5error10validation20validate_paths_exist
FN:206,_RNvNtNtCs5LEo9ZyIjY9_12speicherwald5error10validation24validate_positive_number
FN:178,_RNvXININtCs5LEo9ZyIjY9_12speicherwald5errors5_0pEINtNtCs1p5UDGgVI4d_4core6option6OptionpEINtB5_9OptionExtpE15ok_or_not_foundB7_
FN:30,_RNvXNtCs5LEo9ZyIjY9_12speicherwald5errorNtB2_8AppErrorNtNtCs1p5UDGgVI4d_4core3fmt7Display3fmt
FN:62,_RNvXs0_NtCs5LEo9ZyIjY9_12speicherwald5errorNtB5_8AppErrorNtNtNtCsF3Zf2mOZLg_9axum_core8response13into_response12IntoResponse13into_response
FN:137,_RNvXs1_NtCs5LEo9ZyIjY9_12speicherwald5errorNtB5_8AppErrorINtNtCs1p5UDGgVI4d_4core7convert4FromNtCse7n7qa6X1p9_6anyhow5ErrorE4from
FN:143,_RNvXs2_NtCs5LEo9ZyIjY9_12speicherwald5errorNtB5_8AppErrorINtNtCs1p5UDGgVI4d_4core7convert4FromNtNtCsi582PMW4i4Q_9sqlx_core5error5ErrorE4from
FN:158,_RNvXs3_NtCs5LEo9ZyIjY9_12speicherwald5errorNtB5_8AppErrorINtNtCs1p5UDGgVI4d_4core7convert4FromNtNtNtCs21ZxWzNybR_3std2io5error5ErrorE4from
FN:164,_RNvXs4_NtCs5LEo9ZyIjY9_12speicherwald5errorNtB5_8AppErrorINtNtCs1p5UDGgVI4d_4core7convert4FromNtCs1q4hYWBMKpf_7globset5ErrorE4from
FN:53,_RNvXs_NtCs5LEo9ZyIjY9_12speicherwald5errorNtB4_8AppErrorNtNtCs1p5UDGgVI4d_4core5error5Error6source
FN:179,_RNCNvXININtCs7btOnopyFbT_12speicherwald5errors5_0pEINtNtCs1p5UDGgVI4d_4core6option6OptionpEINtB7_9OptionExtpE15ok_or_not_found0B9_
FN:188,_RNvNtNtCs7btOnopyFbT_12speicherwald5error10validation13validate_path
FN:218,_RNvNtNtCs7btOnopyFbT_12speicherwald5error10validation20validate_paths_exist
FN:206,_RNvNtNtCs7btOnopyFbT_12speicherwald5error10validation24validate_positive_number
FN:178,_RNvXININtCs7btOnopyFbT_12speicherwald5errors5_0pEINtNtCs1p5UDGgVI4d_4core6option6OptionpEINtB5_9OptionExtpE15ok_or_not_foundB7_
FN:30,_RNvXNtCs7btOnopyFbT_12speicherwald5errorNtB2_8AppErrorNtNtCs1p5UDGgVI4d_4core3fmt7Display3fmt
FN:62,_RNvXs0_NtCs7btOnopyFbT_12speicherwald5errorNtB5_8AppErrorNtNtNtCsF3Zf2mOZLg_9axum_core8response13into_response12IntoResponse13into_response
FN:137,_RNvXs1_NtCs7btOnopyFbT_12speicherwald5errorNtB5_8AppErrorINtNtCs1p5UDGgVI4d_4core7convert4FromNtCse7n7qa6X1p9_6anyhow5ErrorE4from
FN:143,_RNvXs2_NtCs7btOnopyFbT_12speicherwald5errorNtB5_8AppErrorINtNtCs1p5UDGgVI4d_4core7convert4FromNtNtCsi582PMW4i4Q_9sqlx_core5error5ErrorE4from
FN:158,_RNvXs3_NtCs7btOnopyFbT_12speicherwald5errorNtB5_8AppErrorINtNtCs1p5UDGgVI4d_4core7convert4FromNtNtNtCs21ZxWzNybR_3std2io5error5ErrorE4from
FN:164,_RNvXs4_NtCs7btOnopyFbT_12speicherwald5errorNtB5_8AppErrorINtNtCs1p5UDGgVI4d_4core7convert4FromNtCs1q4hYWBMKpf_7globset5ErrorE4from
FN:53,_RNvXs_NtCs7btOnopyFbT_12speicherwald5errorNtB4_8AppErrorNtNtCs1p5UDGgVI4d_4core5error5Error6source
FNDA:0,_RNCNvXININtCs5LEo9ZyIjY9_12speicherwald5errors5_0pEINtNtCs1p5UDGgVI4d_4core6option6OptionpEINtB7_9OptionExtpE15ok_or_not_found0B9_
FNDA:0,_RNvNtNtCs5LEo9ZyIjY9_12speicherwald5error10validation13validate_path
FNDA:0,_RNvNtNtCs5LEo9ZyIjY9_12speicherwald5error10validation20validate_paths_exist
FNDA:0,_RNvNtNtCs5LEo9ZyIjY9_12speicherwald5error10validation24validate_positive_number
FNDA:0,_RNvXININtCs5LEo9ZyIjY9_12speicherwald5errors5_0pEINtNtCs1p5UDGgVI4d_4core6option6OptionpEINtB5_9OptionExtpE15ok_or_not_foundB7_
FNDA:0,_RNvXNtCs5LEo9ZyIjY9_12speicherwald5errorNtB2_8AppErrorNtNtCs1p5UDGgVI4d_4core3fmt7Display3fmt
FNDA:0,_RNvXs0_NtCs5LEo9ZyIjY9_12speicherwald5errorNtB5_8AppErrorNtNtNtCsF3Zf2mOZLg_9axum_core8response13into_response12IntoResponse13into_response
FNDA:0,_RNvXs1_NtCs5LEo9ZyIjY9_12speicherwald5errorNtB5_8AppErrorINtNtCs1p5UDGgVI4d_4core7convert4FromNtCse7n7qa6X1p9_6anyhow5ErrorE4from
FNDA:0,_RNvXs2_NtCs5LEo9ZyIjY9_12speicherwald5errorNtB5_8AppErrorINtNtCs1p5UDGgVI4d_4core7convert4FromNtNtCsi582PMW4i4Q_9sqlx_core5error5ErrorE4from
FNDA:0,_RNvXs3_NtCs5LEo9ZyIjY9_12speicherwald5errorNtB5_8AppErrorINtNtCs1p5UDGgVI4d_4core7convert4FromNtNtNtCs21ZxWzNybR_3std2io5error5ErrorE4from
FNDA:0,_RNvXs4_NtCs5LEo9ZyIjY9_12speicherwald5errorNtB5_8AppErrorINtNtCs1p5UDGgVI4d_4core7convert4FromNtCs1q4hYWBMKpf_7globset5ErrorE4from
FNDA:0,_RNvXs_NtCs5LEo9ZyIjY9_12speicherwald5errorNtB4_8AppErrorNtNtCs1p5UDGgVI4d_4core5error5Error6source
FNDA:0,_RNCNvXININtCs7btOnopyFbT_12speicherwald5errors5_0pEINtNtCs1p5UDGgVI4d_4core6option6OptionpEINtB7_9OptionExtpE15ok_or_not_found0B9_
FNDA:0,_RNvNtNtCs7btOnopyFbT_12speicherwald5error10validation13validate_path
FNDA:0,_RNvNtNtCs7btOnopyFbT_12speicherwald5error10validation20validate_paths_exist
FNDA:0,_RNvNtNtCs7btOnopyFbT_12speicherwald5error10validation24validate_positive_number
FNDA:0,_RNvXININtCs7btOnopyFbT_12speicherwald5errors5_0pEINtNtCs1p5UDGgVI4d_4core6option6OptionpEINtB5_9OptionExtpE15ok_or_not_foundB7_
FNDA:0,_RNvXNtCs7btOnopyFbT_12speicherwald5errorNtB2_8AppErrorNtNtCs1p5UDGgVI4d_4core3fmt7Display3fmt
FNDA:0,_RNvXs0_NtCs7btOnopyFbT_12speicherwald5errorNtB5_8AppErrorNtNtNtCsF3Zf2mOZLg_9axum_core8response13into_response12IntoResponse13into_response
FNDA:0,_RNvXs1_NtCs7btOnopyFbT_12speicherwald5errorNtB5_8AppErrorINtNtCs1p5UDGgVI4d_4core7convert4FromNtCse7n7qa6X1p9_6anyhow5ErrorE4from
FNDA:0,_RNvXs2_NtCs7btOnopyFbT_12speicherwald5errorNtB5_8AppErrorINtNtCs1p5UDGgVI4d_4core7convert4FromNtNtCsi582PMW4i4Q_9sqlx_core5error5ErrorE4from
FNDA:0,_RNvXs3_NtCs7btOnopyFbT_12speicherwald5errorNtB5_8AppErrorINtNtCs1p5UDGgVI4d_4core7convert4FromNtNtNtCs21ZxWzNybR_3std2io5error5ErrorE4from
FNDA:0,_RNvXs4_NtCs7btOnopyFbT_12speicherwald5errorNtB5_8AppErrorINtNtCs1p5UDGgVI4d_4core7convert4FromNtCs1q4hYWBMKpf_7globset5ErrorE4from
FNDA:0,_RNvXs_NtCs7btOnopyFbT_12speicherwald5errorNtB4_8AppErrorNtNtCs1p5UDGgVI4d_4core5error5Error6source
FNF:12
FNH:0
DA:30,0
DA:31,0
DA:32,0
DA:33,0
DA:34,0
DA:35,0
DA:36,0
DA:37,0
DA:38,0
DA:39,0
DA:40,0
DA:41,0
DA:42,0
DA:44,0
DA:45,0
DA:47,0
DA:49,0
DA:53,0
DA:54,0
DA:55,0
DA:56,0
DA:58,0
DA:62,0
DA:63,0
DA:64,0
DA:65,0
DA:66,0
DA:67,0
DA:68,0
DA:69,0
DA:70,0
DA:71,0
DA:72,0
DA:73,0
DA:75,0
DA:76,0
DA:77,0
DA:78,0
DA:79,0
DA:81,0
DA:82,0
DA:83,0
DA:84,0
DA:85,0
DA:86,0
DA:87,0
DA:88,0
DA:90,0
DA:91,0
DA:92,0
DA:93,0
DA:95,0
DA:96,0
DA:97,0
DA:98,0
DA:99,0
DA:100,0
DA:101,0
DA:102,0
DA:103,0
DA:104,0
DA:105,0
DA:106,0
DA:107,0
DA:108,0
DA:109,0
DA:110,0
DA:111,0
DA:112,0
DA:113,0
DA:114,0
DA:115,0
DA:119,0
DA:120,0
DA:121,0
DA:122,0
DA:124,0
DA:125,0
DA:128,0
DA:129,0
DA:130,0
DA:132,0
DA:133,0
DA:137,0
DA:138,0
DA:139,0
DA:143,0
DA:144,0
DA:145,0
DA:146,0
DA:147,0
DA:150,0
DA:152,0
DA:154,0
DA:158,0
DA:159,0
DA:160,0
DA:164,0
DA:165,0
DA:166,0
DA:178,0
DA:179,0
DA:180,0
DA:188,0
DA:189,0
DA:190,0
DA:191,0
DA:192,0
DA:193,0
DA:194,0
DA:196,0
DA:197,0
DA:198,0
DA:199,0
DA:200,0
DA:201,0
DA:203,0
DA:204,0
DA:206,0
DA:207,0
DA:208,0
DA:209,0
DA:210,0
DA:211,0
DA:212,0
DA:213,0
DA:214,0
DA:215,0
DA:216,0
DA:218,0
DA:219,0
DA:220,0
DA:221,0
DA:222,0
DA:223,0
DA:225,0
DA:226,0
BRF:0
BRH:0
LF:138
LH:0
end_of_record
SF:/app/src/main.rs
FN:120,_RINvXNCNvCs5LEo9ZyIjY9_12speicherwald4main0NtB3_12NoSseDefaultNtNtNtCsdMVCmHoQqNa_10tower_http11compression9predicate9Predicate15should_compresspEB7_
FN:102,_RNCNCNCNvCs5LEo9ZyIjY9_12speicherwald4main0s1_00B7_
FN:67,_RNCNCNCNvCs5LEo9ZyIjY9_12speicherwald4main0s_00B7_
FN:45,_RNCNCNvCs5LEo9ZyIjY9_12speicherwald4main00B5_
FN:88,_RNCNCNvCs5LEo9ZyIjY9_12speicherwald4main0s0_0B5_
FN:102,_RNCNCNvCs5LEo9ZyIjY9_12speicherwald4main0s1_0B5_
FN:103,_RNCNCNvCs5LEo9ZyIjY9_12speicherwald4main0s2_0B5_
FN:174,_RNCNCNvCs5LEo9ZyIjY9_12speicherwald4main0s3_0B5_
FN:66,_RNCNCNvCs5LEo9ZyIjY9_12speicherwald4main0s_0B5_
FN:185,_RNCNvCs5LEo9ZyIjY9_12speicherwald15shutdown_signal0B3_
FN:38,_RNCNvCs5LEo9ZyIjY9_12speicherwald4main0B3_
FN:185,_RNvCs5LEo9ZyIjY9_12speicherwald15shutdown_signal
FN:38,_RNvCs5LEo9ZyIjY9_12speicherwald4main
FNDA:0,_RINvXNCNvCs5LEo9ZyIjY9_12speicherwald4main0NtB3_12NoSseDefaultNtNtNtCsdMVCmHoQqNa_10tower_http11compression9predicate9Predicate15should_compresspEB7_
FNDA:0,_RNCNCNCNvCs5LEo9ZyIjY9_12speicherwald4main0s1_00B7_
FNDA:0,_RNCNCNCNvCs5LEo9ZyIjY9_12speicherwald4main0s_00B7_
FNDA:0,_RNCNCNvCs5LEo9ZyIjY9_12speicherwald4main00B5_
FNDA:0,_RNCNCNvCs5LEo9ZyIjY9_12speicherwald4main0s0_0B5_
FNDA:0,_RNCNCNvCs5LEo9ZyIjY9_12speicherwald4main0s1_0B5_
FNDA:0,_RNCNCNvCs5LEo9ZyIjY9_12speicherwald4main0s2_0B5_
FNDA:0,_RNCNCNvCs5LEo9ZyIjY9_12speicherwald4main0s3_0B5_
FNDA:0,_RNCNCNvCs5LEo9ZyIjY9_12speicherwald4main0s_0B5_
FNDA:0,_RNCNvCs5LEo9ZyIjY9_12speicherwald15shutdown_signal0B3_
FNDA:0,_RNCNvCs5LEo9ZyIjY9_12speicherwald4main0B3_
FNDA:0,_RNvCs5LEo9ZyIjY9_12speicherwald15shutdown_signal
FNDA:0,_RNvCs5LEo9ZyIjY9_12speicherwald4main
FNF:13
FNH:0
DA:38,0
DA:40,0
DA:41,0
DA:42,0
DA:43,0
DA:44,0
DA:45,0
DA:46,0
DA:47,0
DA:48,0
DA:49,0
DA:50,0
DA:52,0
DA:55,0
DA:58,0
DA:59,0
DA:60,0
DA:61,0
DA:62,0
DA:63,0
DA:64,0
DA:65,0
DA:66,0
DA:67,0
DA:68,0
DA:69,0
DA:70,0
DA:71,0
DA:72,0
DA:73,0
DA:74,0
DA:75,0
DA:76,0
DA:77,0
DA:80,0
DA:83,0
DA:87,0
DA:88,0
DA:89,0
DA:91,0
DA:92,0
DA:99,0
DA:100,0
DA:101,0
DA:102,0
DA:103,0
DA:104,0
DA:105,0
DA:106,0
DA:108,0
DA:111,0
DA:112,0
DA:113,0
DA:120,0
DA:121,0
DA:122,0
DA:123,0
DA:124,0
DA:125,0
DA:126,0
DA:127,0
DA:128,0
DA:129,0
DA:131,0
DA:134,0
DA:136,0
DA:137,0
DA:138,0
DA:139,0
DA:140,0
DA:141,0
DA:142,0
DA:143,0
DA:144,0
DA:145,0
DA:146,0
DA:147,0
DA:148,0
DA:149,0
DA:150,0
DA:151,0
DA:152,0
DA:153,0
DA:154,0
DA:156,0
DA:157,0
DA:158,0
DA:159,0
DA:160,0
DA:161,0
DA:162,0
DA:167,0
DA:170,0
DA:171,0
DA:172,0
DA:173,0
DA:174,0
DA:175,0
DA:177,0
DA:178,0
DA:179,0
DA:180,0
DA:182,0
DA:183,0
DA:185,0
DA:188,0
DA:189,0
DA:190,0
DA:191,0
DA:192,0
DA:199,0
DA:200,0
BRF:0
BRH:0
LF:123
LH:0
end_of_record
SF:/app/src/metrics.rs
FN:57,_RNvMNtCs5LEo9ZyIjY9_12speicherwald7metricsNtB2_7Metrics12add_warnings
FN:61,_RNvMNtCs5LEo9ZyIjY9_12speicherwald7metricsNtB2_7Metrics12get_snapshot
FN:41,_RNvMNtCs5LEo9ZyIjY9_12speicherwald7metricsNtB2_7Metrics16inc_scans_failed
FN:33,_RNvMNtCs5LEo9ZyIjY9_12speicherwald7metricsNtB2_7Metrics17inc_scans_started
FN:37,_RNvMNtCs5LEo9ZyIjY9_12speicherwald7metricsNtB2_7Metrics19inc_scans_completed
FN:20,_RNvMNtCs5LEo9ZyIjY9_12speicherwald7metricsNtB2_7Metrics3new
FN:49,_RNvMNtCs5LEo9ZyIjY9_12speicherwald7metricsNtB2_7Metrics8add_dirs
FN:53,_RNvMNtCs5LEo9ZyIjY9_12speicherwald7metricsNtB2_7Metrics9add_bytes
FN:45,_RNvMNtCs5LEo9ZyIjY9_12speicherwald7metricsNtB2_7Metrics9add_files
FN:76,_RNvXs_NtCs5LEo9ZyIjY9_12speicherwald7metricsNtB4_7MetricsNtNtCs1p5UDGgVI4d_4core7default7Default7default
FN:57,_RNvMNtCs7btOnopyFbT_12speicherwald7metricsNtB2_7Metrics12add_warnings
FN:61,_RNvMNtCs7btOnopyFbT_12speicherwald7metricsNtB2_7Metrics12get_snapshot
FN:41,_RNvMNtCs7btOnopyFbT_12speicherwald7metricsNtB2_7Metrics16inc_scans_failed
FN:33,_RNvMNtCs7btOnopyFbT_12speicherwald7metricsNtB2_7Metrics17inc_scans_started
FN:37,_RNvMNtCs7btOnopyFbT_12speicherwald7metricsNtB2_7Metrics19inc_scans_completed
FN:20,_RNvMNtCs7btOnopyFbT_12speicherwald7metricsNtB2_7Metrics3new
FN:49,_RNvMNtCs7btOnopyFbT_12speicherwald7metricsNtB2_7Metrics8add_dirs
FN:53,_RNvMNtCs7btOnopyFbT_12speicherwald7metricsNtB2_7Metrics9add_bytes
FN:45,_RNvMNtCs7btOnopyFbT_12speicherwald7metricsNtB2_7Metrics9add_files
FN:76,_RNvXs_NtCs7btOnopyFbT_12speicherwald7metricsNtB4_7MetricsNtNtCs1p5UDGgVI4d_4core7default7Default7default
FNDA:0,_RNvMNtCs5LEo9ZyIjY9_12speicherwald7metricsNtB2_7Metrics12add_warnings
FNDA:0,_RNvMNtCs5LEo9ZyIjY9_12speicherwald7metricsNtB2_7Metrics12get_snapshot
FNDA:0,_RNvMNtCs5LEo9ZyIjY9_12speicherwald7metricsNtB2_7Metrics16inc_scans_failed
FNDA:0,_RNvMNtCs5LEo9ZyIjY9_12speicherwald7metricsNtB2_7Metrics17inc_scans_started
FNDA:0,_RNvMNtCs5LEo9ZyIjY9_12speicherwald7metricsNtB2_7Metrics19inc_scans_completed
FNDA:0,_RNvMNtCs5LEo9ZyIjY9_12speicherwald7metricsNtB2_7Metrics3new
FNDA:0,_RNvMNtCs5LEo9ZyIjY9_12speicherwald7metricsNtB2_7Metrics8add_dirs
FNDA:0,_RNvMNtCs5LEo9ZyIjY9_12speicherwald7metricsNtB2_7Metrics9add_bytes
FNDA:0,_RNvMNtCs5LEo9ZyIjY9_12speicherwald7metricsNtB2_7Metrics9add_files
FNDA:0,_RNvXs_NtCs5LEo9ZyIjY9_12speicherwald7metricsNtB4_7MetricsNtNtCs1p5UDGgVI4d_4core7default7Default7default
FNDA:0,_RNvMNtCs7btOnopyFbT_12speicherwald7metricsNtB2_7Metrics12add_warnings
FNDA:0,_RNvMNtCs7btOnopyFbT_12speicherwald7metricsNtB2_7Metrics12get_snapshot
FNDA:0,_RNvMNtCs7btOnopyFbT_12speicherwald7metricsNtB2_7Metrics16inc_scans_failed
FNDA:0,_RNvMNtCs7btOnopyFbT_12speicherwald7metricsNtB2_7Metrics17inc_scans_started
FNDA:0,_RNvMNtCs7btOnopyFbT_12speicherwald7metricsNtB2_7Metrics19inc_scans_completed
FNDA:0,_RNvMNtCs7btOnopyFbT_12speicherwald7metricsNtB2_7Metrics3new
FNDA:0,_RNvMNtCs7btOnopyFbT_12speicherwald7metricsNtB2_7Metrics8add_dirs
FNDA:0,_RNvMNtCs7btOnopyFbT_12speicherwald7metricsNtB2_7Metrics9add_bytes
FNDA:0,_RNvMNtCs7btOnopyFbT_12speicherwald7metricsNtB2_7Metrics9add_files
FNDA:0,_RNvXs_NtCs7btOnopyFbT_12speicherwald7metricsNtB4_7MetricsNtNtCs1p5UDGgVI4d_4core7default7Default7default
FNF:10
FNH:0
DA:20,0
DA:21,0
DA:22,0
DA:23,0
DA:24,0
DA:25,0
DA:26,0
DA:27,0
DA:28,0
DA:29,0
DA:30,0
DA:31,0
DA:33,0
DA:34,0
DA:35,0
DA:37,0
DA:38,0
DA:39,0
DA:41,0
DA:42,0
DA:43,0
DA:45,0
DA:46,0
DA:47,0
DA:49,0
DA:50,0
DA:51,0
DA:53,0
DA:54,0
DA:55,0
DA:57,0
DA:58,0
DA:59,0
DA:61,0
DA:62,0
DA:63,0
DA:64,0
DA:65,0
DA:66,0
DA:67,0
DA:68,0
DA:69,0
DA:70,0
DA:71,0
DA:72,0
DA:76,0
DA:77,0
DA:78,0
BRF:0
BRH:0
LF:48
LH:0
end_of_record
SF:/app/src/middleware/ip.rs
FN:6,_RNCNvNtNtCs5LEo9ZyIjY9_12speicherwald10middleware2ip23extract_ip_from_headers0B7_
FN:13,_RNCNvNtNtCs5LEo9ZyIjY9_12speicherwald10middleware2ip23extract_ip_from_headerss_0B7_
FN:5,_RNvNtNtCs5LEo9ZyIjY9_12speicherwald10middleware2ip23extract_ip_from_headers
FN:6,_RNCNvNtNtCs7btOnopyFbT_12speicherwald10middleware2ip23extract_ip_from_headers0B7_
FN:13,_RNCNvNtNtCs7btOnopyFbT_12speicherwald10middleware2ip23extract_ip_from_headerss_0B7_
FN:5,_RNvNtNtCs7btOnopyFbT_12speicherwald10middleware2ip23extract_ip_from_headers
FNDA:0,_RNCNvNtNtCs5LEo9ZyIjY9_12speicherwald10middleware2ip23extract_ip_from_headers0B7_
FNDA:0,_RNCNvNtNtCs5LEo9ZyIjY9_12speicherwald10middleware2ip23extract_ip_from_headerss_0B7_
FNDA:0,_RNvNtNtCs5LEo9ZyIjY9_12speicherwald10middleware2ip23extract_ip_from_headers
FNDA:0,_RNCNvNtNtCs7btOnopyFbT_12speicherwald10middleware2ip23extract_ip_from_headers0B7_
FNDA:0,_RNCNvNtNtCs7btOnopyFbT_12speicherwald10middleware2ip23extract_ip_from_headerss_0B7_
FNDA:0,_RNvNtNtCs7btOnopyFbT_12speicherwald10middleware2ip23extract_ip_from_headers
FNF:3
FNH:0
DA:5,0
DA:6,0
DA:7,0
DA:8,0
DA:9,0
DA:10,0
DA:11,0
DA:12,0
DA:13,0
DA:14,0
DA:15,0
DA:16,0
DA:17,0
DA:18,0
DA:19,0
BRF:0
BRH:0
LF:17
LH:0
end_of_record
SF:/app/src/middleware/rate_limit.rs
FN:74,_RNCNCNCNvMNtNtCs5LEo9ZyIjY9_12speicherwald10middleware10rate_limitNtB8_11RateLimiter19cleanup_old_entries000Bc_
FN:112,_RNCNCNCNvNtNtCs5LEo9ZyIjY9_12speicherwald10middleware10rate_limit21rate_limit_middleware000Bb_
FN:73,_RNCNCNvMNtNtCs5LEo9ZyIjY9_12speicherwald10middleware10rate_limitNtB6_11RateLimiter19cleanup_old_entries00Ba_
FN:110,_RNCNCNvNtNtCs5LEo9ZyIjY9_12speicherwald10middleware10rate_limit21rate_limit_middleware00B9_
FN:68,_RNCNvMNtNtCs5LEo9ZyIjY9_12speicherwald10middleware10rate_limitNtB4_11RateLimiter19cleanup_old_entries0B8_
FN:165,_RNCNvMs0_NtNtCs5LEo9ZyIjY9_12speicherwald10middleware10rate_limitNtB7_19EndpointRateLimiter11cleanup_all0Bb_
FN:153,_RNCNvMs0_NtNtCs5LEo9ZyIjY9_12speicherwald10middleware10rate_limitNtB7_19EndpointRateLimiter20check_endpoint_limit0Bb_
FN:178,_RNCNvNtNtCs5LEo9ZyIjY9_12speicherwald10middleware10rate_limit12cleanup_task0B7_
FN:86,_RNCNvNtNtCs5LEo9ZyIjY9_12speicherwald10middleware10rate_limit21rate_limit_middleware0B7_
FN:97,_RNCNvNvXNCNvNtNtCs5LEo9ZyIjY9_12speicherwald10middleware10rate_limit21rate_limit_middleware0NtB6_19GLOBAL_RATE_LIMITERNtNtNtCs1p5UDGgVI4d_4core3ops5deref5Deref5deref23___static_ref_initialize0Be_
FN:101,_RNCNvNvXNCNvNtNtCs5LEo9ZyIjY9_12speicherwald10middleware10rate_limit21rate_limit_middleware0NtB6_19GLOBAL_RATE_LIMITERNtNtNtCs1p5UDGgVI4d_4core3ops5deref5Deref5deref23___static_ref_initializes_0Be_
FN:68,_RNvMNtNtCs5LEo9ZyIjY9_12speicherwald10middleware10rate_limitNtB2_11RateLimiter19cleanup_old_entries
FN:165,_RNvMs0_NtNtCs5LEo9ZyIjY9_12speicherwald10middleware10rate_limitNtB5_19EndpointRateLimiter11cleanup_all
FN:140,_RNvMs0_NtNtCs5LEo9ZyIjY9_12speicherwald10middleware10rate_limitNtB5_19EndpointRateLimiter11with_limits
FN:149,_RNvMs0_NtNtCs5LEo9ZyIjY9_12speicherwald10middleware10rate_limitNtB5_19EndpointRateLimiter20check_endpoint_limit
FN:136,_RNvMs0_NtNtCs5LEo9ZyIjY9_12speicherwald10middleware10rate_limitNtB5_19EndpointRateLimiter3new
FN:178,_RNvNtNtCs5LEo9ZyIjY9_12speicherwald10middleware10rate_limit12cleanup_task
FN:86,_RNvNtNtCs5LEo9ZyIjY9_12speicherwald10middleware10rate_limit21rate_limit_middleware
FN:81,_RNvXs_NtNtCs5LEo9ZyIjY9_12speicherwald10middleware10rate_limitNtB4_19EndpointRateLimiterNtNtCs1p5UDGgVI4d_4core7default7Default7default
FN:35,_RNvMNtNtCs5LEo9ZyIjY9_12speicherwald10middleware10rate_limitNtB2_11RateLimiter16check_rate_limit
FN:27,_RNvMNtNtCs5LEo9ZyIjY9_12speicherwald10middleware10rate_limitNtB2_11RateLimiter3new
FN:43,_RNCNCNvMNtNtCs5LEo9ZyIjY9_12speicherwald10middleware10rate_limitNtB6_11RateLimiter16check_rate_limit00Ba_
FN:35,_RNCNvMNtNtCs5LEo9ZyIjY9_12speicherwald10middleware10rate_limitNtB4_11RateLimiter16check_rate_limit0B8_
FN:192,_RNCNvNtNtNtCs5LEo9ZyIjY9_12speicherwald10middleware10rate_limit5testss_17test_rate_limiter0B9_
FN:212,_RNCNvNtNtNtCs5LEo9ZyIjY9_12speicherwald10middleware10rate_limit5testss_18test_different_ips0B9_
FN:192,_RNvNtNtNtCs5LEo9ZyIjY9_12speicherwald10middleware10rate_limit5testss_17test_rate_limiter
FN:212,_RNvNtNtNtCs5LEo9ZyIjY9_12speicherwald10middleware10rate_limit5testss_18test_different_ips
FN:43,_RNCNCNvMNtNtCs7btOnopyFbT_12speicherwald10middleware10rate_limitNtB6_11RateLimiter16check_rate_limit00Ba_
FN:35,_RNCNvMNtNtCs7btOnopyFbT_12speicherwald10middleware10rate_limitNtB4_11RateLimiter16check_rate_limit0B8_
FN:192,_RNCNvNtNtNtCs7btOnopyFbT_12speicherwald10middleware10rate_limit5testss_17test_rate_limiter0B9_
FN:212,_RNCNvNtNtNtCs7btOnopyFbT_12speicherwald10middleware10rate_limit5testss_18test_different_ips0B9_
FN:192,_RNvNtNtNtCs7btOnopyFbT_12speicherwald10middleware10rate_limit5testss_17test_rate_limiter
FN:212,_RNvNtNtNtCs7btOnopyFbT_12speicherwald10middleware10rate_limit5testss_18test_different_ips
FN:74,_RNCNCNCNvMNtNtCs7btOnopyFbT_12speicherwald10middleware10rate_limitNtB8_11RateLimiter19cleanup_old_entries000Bc_
FN:112,_RNCNCNCNvNtNtCs7btOnopyFbT_12speicherwald10middleware10rate_limit21rate_limit_middleware000Bb_
FN:73,_RNCNCNvMNtNtCs7btOnopyFbT_12speicherwald10middleware10rate_limitNtB6_11RateLimiter19cleanup_old_entries00Ba_
FN:110,_RNCNCNvNtNtCs7btOnopyFbT_12speicherwald10middleware10rate_limit21rate_limit_middleware00B9_
FN:68,_RNCNvMNtNtCs7btOnopyFbT_12speicherwald10middleware10rate_limitNtB4_11RateLimiter19cleanup_old_entries0B8_
FN:165,_RNCNvMs0_NtNtCs7btOnopyFbT_12speicherwald10middleware10rate_limitNtB7_19EndpointRateLimiter11cleanup_all0Bb_
FN:153,_RNCNvMs0_NtNtCs7btOnopyFbT_12speicherwald10middleware10rate_limitNtB7_19EndpointRateLimiter20check_endpoint_limit0Bb_
FN:178,_RNCNvNtNtCs7btOnopyFbT_12speicherwald10middleware10rate_limit12cleanup_task0B7_
FN:86,_RNCNvNtNtCs7btOnopyFbT_12speicherwald10middleware10rate_limit21rate_limit_middleware0B7_
FN:97,_RNCNvNvXNCNvNtNtCs7btOnopyFbT_12speicherwald10middleware10rate_limit21rate_limit_middleware0NtB6_19GLOBAL_RATE_LIMITERNtNtNtCs1p5UDGgVI4d_4core3ops5deref5Deref5deref23___static_ref_initialize0Be_
FN:101,_RNCNvNvXNCNvNtNtCs7btOnopyFbT_12speicherwald10middleware10rate_limit21rate_limit_middleware0NtB6_19GLOBAL_RATE_LIMITERNtNtNtCs1p5UDGgVI4d_4core3ops5deref5Deref5deref23___static_ref_initializes_0Be_
FN:68,_RNvMNtNtCs7btOnopyFbT_12speicherwald10middleware10rate_limitNtB2_11RateLimiter19cleanup_old_entries
FN:165,_RNvMs0_NtNtCs7btOnopyFbT_12speicherwald10middleware10rate_limitNtB5_19EndpointRateLimiter11cleanup_all
FN:140,_RNvMs0_NtNtCs7btOnopyFbT_12speicherwald10middleware10rate_limitNtB5_19EndpointRateLimiter11with_limits
FN:149,_RNvMs0_NtNtCs7btOnopyFbT_12speicherwald10middleware10rate_limitNtB5_19EndpointRateLimiter20check_endpoint_limit
FN:136,_RNvMs0_NtNtCs7btOnopyFbT_12speicherwald10middleware10rate_limitNtB5_19EndpointRateLimiter3new
FN:178,_RNvNtNtCs7btOnopyFbT_12speicherwald10middleware10rate_limit12cleanup_task
FN:86,_RNvNtNtCs7btOnopyFbT_12speicherwald10middleware10rate_limit21rate_limit_middleware
FN:81,_RNvXs_NtNtCs7btOnopyFbT_12speicherwald10middleware10rate_limitNtB4_19EndpointRateLimiterNtNtCs1p5UDGgVI4d_4core7default7Default7default
FN:35,_RNvMNtNtCs7btOnopyFbT_12speicherwald10middleware10rate_limitNtB2_11RateLimiter16check_rate_limit
FN:27,_RNvMNtNtCs7btOnopyFbT_12speicherwald10middleware10rate_limitNtB2_11RateLimiter3new
FNDA:0,_RNCNCNCNvMNtNtCs5LEo9ZyIjY9_12speicherwald10middleware10rate_limitNtB8_11RateLimiter19cleanup_old_entries000Bc_
FNDA:0,_RNCNCNCNvNtNtCs5LEo9ZyIjY9_12speicherwald10middleware10rate_limit21rate_limit_middleware000Bb_
FNDA:0,_RNCNCNvMNtNtCs5LEo9ZyIjY9_12speicherwald10middleware10rate_limitNtB6_11RateLimiter19cleanup_old_entries00Ba_
FNDA:0,_RNCNCNvNtNtCs5LEo9ZyIjY9_12speicherwald10middleware10rate_limit21rate_limit_middleware00B9_
FNDA:0,_RNCNvMNtNtCs5LEo9ZyIjY9_12speicherwald10middleware10rate_limitNtB4_11RateLimiter19cleanup_old_entries0B8_
FNDA:0,_RNCNvMs0_NtNtCs5LEo9ZyIjY9_12speicherwald10middleware10rate_limitNtB7_19EndpointRateLimiter11cleanup_all0Bb_
FNDA:0,_RNCNvMs0_NtNtCs5LEo9ZyIjY9_12speicherwald10middleware10rate_limitNtB7_19EndpointRateLimiter20check_endpoint_limit0Bb_
FNDA:0,_RNCNvNtNtCs5LEo9ZyIjY9_12speicherwald10middleware10rate_limit12cleanup_task0B7_
FNDA:0,_RNCNvNtNtCs5LEo9ZyIjY9_12speicherwald10middleware10rate_limit21rate_limit_middleware0B7_
FNDA:0,_RNCNvNvXNCNvNtNtCs5LEo9ZyIjY9_12speicherwald10middleware10rate_limit21rate_limit_middleware0NtB6_19GLOBAL_RATE_LIMITERNtNtNtCs1p5UDGgVI4d_4core3ops5deref5Deref5deref23___static_ref_initialize0Be_
FNDA:0,_RNCNvNvXNCNvNtNtCs5LEo9ZyIjY9_12speicherwald10middleware10rate_limit21rate_limit_middleware0NtB6_19GLOBAL_RATE_LIMITERNtNtNtCs1p5UDGgVI4d_4core3ops5deref5Deref5deref23___static_ref_initializes_0Be_
FNDA:0,_RNvMNtNtCs5LEo9ZyIjY9_12speicherwald10middleware10rate_limitNtB2_11RateLimiter19cleanup_old_entries
FNDA:0,_RNvMs0_NtNtCs5LEo9ZyIjY9_12speicherwald10middleware10rate_limitNtB5_19EndpointRateLimiter11cleanup_all
FNDA:0,_RNvMs0_NtNtCs5LEo9ZyIjY9_12speicherwald10middleware10rate_limitNtB5_19EndpointRateLimiter11with_limits
FNDA:0,_RNvMs0_NtNtCs5LEo9ZyIjY9_12speicherwald10middleware10rate_limitNtB5_19EndpointRateLimiter20check_endpoint_limit
FNDA:0,_RNvMs0_NtNtCs5LEo9ZyIjY9_12speicherwald10middleware10rate_limitNtB5_19EndpointRateLimiter3new
FNDA:0,_RNvNtNtCs5LEo9ZyIjY9_12speicherwald10middleware10rate_limit12cleanup_task
FNDA:0,_RNvNtNtCs5LEo9ZyIjY9_12speicherwald10middleware10rate_limit21rate_limit_middleware
FNDA:0,_RNvXs_NtNtCs5LEo9ZyIjY9_12speicherwald10middleware10rate_limitNtB4_19EndpointRateLimiterNtNtCs1p5UDGgVI4d_4core7default7Default7default
FNDA:9,_RNvMNtNtCs5LEo9ZyIjY9_12speicherwald10middleware10rate_limitNtB2_11RateLimiter16check_rate_limit
FNDA:2,_RNvMNtNtCs5LEo9ZyIjY9_12speicherwald10middleware10rate_limitNtB2_11RateLimiter3new
FNDA:11,_RNCNCNvMNtNtCs5LEo9ZyIjY9_12speicherwald10middleware10rate_limitNtB6_11RateLimiter16check_rate_limit00Ba_
FNDA:9,_RNCNvMNtNtCs5LEo9ZyIjY9_12speicherwald10middleware10rate_limitNtB4_11RateLimiter16check_rate_limit0B8_
FNDA:1,_RNCNvNtNtNtCs5LEo9ZyIjY9_12speicherwald10middleware10rate_limit5testss_17test_rate_limiter0B9_
FNDA:1,_RNCNvNtNtNtCs5LEo9ZyIjY9_12speicherwald10middleware10rate_limit5testss_18test_different_ips0B9_
FNDA:1,_RNvNtNtNtCs5LEo9ZyIjY9_12speicherwald10middleware10rate_limit5testss_17test_rate_limiter
FNDA:1,_RNvNtNtNtCs5LEo9ZyIjY9_12speicherwald10middleware10rate_limit5testss_18test_different_ips
FNDA:11,_RNCNCNvMNtNtCs7btOnopyFbT_12speicherwald10middleware10rate_limitNtB6_11RateLimiter16check_rate_limit00Ba_
FNDA:9,_RNCNvMNtNtCs7btOnopyFbT_12speicherwald10middleware10rate_limitNtB4_11RateLimiter16check_rate_limit0B8_
FNDA:1,_RNCNvNtNtNtCs7btOnopyFbT_12speicherwald10middleware10rate_limit5testss_17test_rate_limiter0B9_
FNDA:1,_RNCNvNtNtNtCs7btOnopyFbT_12speicherwald10middleware10rate_limit5testss_18test_different_ips0B9_
FNDA:1,_RNvNtNtNtCs7btOnopyFbT_12speicherwald10middleware10rate_limit5testss_17test_rate_limiter
FNDA:1,_RNvNtNtNtCs7btOnopyFbT_12speicherwald10middleware10rate_limit5testss_18test_different_ips
FNDA:0,_RNCNCNCNvMNtNtCs7btOnopyFbT_12speicherwald10middleware10rate_limitNtB8_11RateLimiter19cleanup_old_entries000Bc_
FNDA:0,_RNCNCNCNvNtNtCs7btOnopyFbT_12speicherwald10middleware10rate_limit21rate_limit_middleware000Bb_
FNDA:0,_RNCNCNvMNtNtCs7btOnopyFbT_12speicherwald10middleware10rate_limitNtB6_11RateLimiter19cleanup_old_entries00Ba_
FNDA:0,_RNCNCNvNtNtCs7btOnopyFbT_12speicherwald10middleware10rate_limit21rate_limit_middleware00B9_
FNDA:0,_RNCNvMNtNtCs7btOnopyFbT_12speicherwald10middleware10rate_limitNtB4_11RateLimiter19cleanup_old_entries0B8_
FNDA:0,_RNCNvMs0_NtNtCs7btOnopyFbT_12speicherwald10middleware10rate_limitNtB7_19EndpointRateLimiter11cleanup_all0Bb_
FNDA:0,_RNCNvMs0_NtNtCs7btOnopyFbT_12speicherwald10middleware10rate_limitNtB7_19EndpointRateLimiter20check_endpoint_limit0Bb_
FNDA:0,_RNCNvNtNtCs7btOnopyFbT_12speicherwald10middleware10rate_limit12cleanup_task0B7_
FNDA:0,_RNCNvNtNtCs7btOnopyFbT_12speicherwald10middleware10rate_limit21rate_limit_middleware0B7_
FNDA:0,_RNCNvNvXNCNvNtNtCs7btOnopyFbT_12speicherwald10middleware10rate_limit21rate_limit_middleware0NtB6_19GLOBAL_RATE_LIMITERNtNtNtCs1p5UDGgVI4d_4core3ops5deref5Deref5deref23___static_ref_initialize0Be_
FNDA:0,_RNCNvNvXNCNvNtNtCs7btOnopyFbT_12speicherwald10middleware10rate_limit21rate_limit_middleware0NtB6_19GLOBAL_RATE_LIMITERNtNtNtCs1p5UDGgVI4d_4core3ops5deref5Deref5deref23___static_ref_initializes_0Be_
FNDA:0,_RNvMNtNtCs7btOnopyFbT_12speicherwald10middleware10rate_limitNtB2_11RateLimiter19cleanup_old_entries
FNDA:0,_RNvMs0_NtNtCs7btOnopyFbT_12speicherwald10middleware10rate_limitNtB5_19EndpointRateLimiter11cleanup_all
FNDA:0,_RNvMs0_NtNtCs7btOnopyFbT_12speicherwald10middleware10rate_limitNtB5_19EndpointRateLimiter11with_limits
FNDA:0,_RNvMs0_NtNtCs7btOnopyFbT_12speicherwald10middleware10rate_limitNtB5_19EndpointRateLimiter20check_endpoint_limit
FNDA:0,_RNvMs0_NtNtCs7btOnopyFbT_12speicherwald10middleware10rate_limitNtB5_19EndpointRateLimiter3new
FNDA:0,_RNvNtNtCs7btOnopyFbT_12speicherwald10middleware10rate_limit12cleanup_task
FNDA:0,_RNvNtNtCs7btOnopyFbT_12speicherwald10middleware10rate_limit21rate_limit_middleware
FNDA:0,_RNvXs_NtNtCs7btOnopyFbT_12speicherwald10middleware10rate_limitNtB4_19EndpointRateLimiterNtNtCs1p5UDGgVI4d_4core7default7Default7default
FNDA:9,_RNvMNtNtCs7btOnopyFbT_12speicherwald10middleware10rate_limitNtB2_11RateLimiter16check_rate_limit
FNDA:2,_RNvMNtNtCs7btOnopyFbT_12speicherwald10middleware10rate_limitNtB2_11RateLimiter3new
FNF:27
FNH:8
DA:27,4
DA:28,4
DA:29,4
DA:30,4
DA:31,4
DA:32,4
DA:33,4
DA:35,18
DA:36,18
DA:37,18
DA:40,18
DA:43,22
DA:46,18
DA:47,6
DA:48,6
DA:50,6
DA:51,6
DA:52,6
DA:53,6
DA:54,6
DA:55,6
DA:56,6
DA:57,6
DA:58,6
DA:59,6
DA:60,6
DA:61,12
DA:64,12
DA:65,12
DA:66,18
DA:68,0
DA:69,0
DA:70,0
DA:73,0
DA:74,0
DA:75,0
DA:76,0
DA:77,0
DA:81,0
DA:82,0
DA:83,0
DA:86,0
DA:88,0
DA:97,0
DA:101,0
DA:110,0
DA:111,0
DA:112,0
DA:113,0
DA:115,0
DA:116,0
DA:119,0
DA:121,0
DA:123,0
DA:124,0
DA:125,0
DA:127,0
DA:136,0
DA:137,0
DA:138,0
DA:140,0
DA:141,0
DA:142,0
DA:143,0
DA:144,0
DA:145,0
DA:146,0
DA:147,0
DA:149,0
DA:150,0
DA:151,0
DA:152,0
DA:153,0
DA:154,0
DA:156,0
DA:157,0
DA:160,0
DA:162,0
DA:165,0
DA:167,0
DA:168,0
DA:169,0
DA:171,0
DA:172,0
DA:174,0
DA:178,0
DA:179,0
DA:182,0
DA:183,0
DA:192,2
DA:193,2
DA:194,2
DA:197,2
DA:198,2
DA:199,2
DA:202,2
DA:205,2
DA:208,2
DA:209,2
DA:212,2
DA:213,2
DA:214,2
DA:215,2
DA:218,2
DA:219,2
DA:222,2
DA:223,2
DA:224,2
BRF:0
BRH:0
LF:123
LH:55
end_of_record
SF:/app/src/middleware/security_headers.rs
FN:67,_RNCNCNvNtNtCs5LEo9ZyIjY9_12speicherwald10middleware16security_headers27security_headers_middleware00B9_
FN:68,_RNCNCNvNtNtCs5LEo9ZyIjY9_12speicherwald10middleware16security_headers27security_headers_middleware0s_0B9_
FN:18,_RNCNvNtNtCs5LEo9ZyIjY9_12speicherwald10middleware16security_headers27security_headers_middleware0B7_
FN:14,_RNvNtNtCs5LEo9ZyIjY9_12speicherwald10middleware16security_headers27security_headers_middleware
FN:67,_RNCNCNvNtNtCs7btOnopyFbT_12speicherwald10middleware16security_headers27security_headers_middleware00B9_
FN:68,_RNCNCNvNtNtCs7btOnopyFbT_12speicherwald10middleware16security_headers27security_headers_middleware0s_0B9_
FN:18,_RNCNvNtNtCs7btOnopyFbT_12speicherwald10middleware16security_headers27security_headers_middleware0B7_
FN:14,_RNvNtNtCs7btOnopyFbT_12speicherwald10middleware16security_headers27security_headers_middleware
FNDA:0,_RNCNCNvNtNtCs5LEo9ZyIjY9_12speicherwald10middleware16security_headers27security_headers_middleware00B9_
FNDA:0,_RNCNCNvNtNtCs5LEo9ZyIjY9_12speicherwald10middleware16security_headers27security_headers_middleware0s_0B9_
FNDA:0,_RNCNvNtNtCs5LEo9ZyIjY9_12speicherwald10middleware16security_headers27security_headers_middleware0B7_
FNDA:0,_RNvNtNtCs5LEo9ZyIjY9_12speicherwald10middleware16security_headers27security_headers_middleware
FNDA:0,_RNCNCNvNtNtCs7btOnopyFbT_12speicherwald10middleware16security_headers27security_headers_middleware00B9_
FNDA:0,_RNCNCNvNtNtCs7btOnopyFbT_12speicherwald10middleware16security_headers27security_headers_middleware0s_0B9_
FNDA:0,_RNCNvNtNtCs7btOnopyFbT_12speicherwald10middleware16security_headers27security_headers_middleware0B7_
FNDA:0,_RNvNtNtCs7btOnopyFbT_12speicherwald10middleware16security_headers27security_headers_middleware
FNF:4
FNH:0
DA:14,0
DA:15,0
DA:16,0
DA:17,0
DA:18,0
DA:19,0
DA:20,0
DA:23,0
DA:26,0
DA:29,0
DA:32,0
DA:33,0
DA:34,0
DA:38,0
DA:39,0
DA:40,0
DA:42,0
DA:43,0
DA:44,0
DA:48,0
DA:49,0
DA:50,0
DA:51,0
DA:52,0
DA:53,0
DA:54,0
DA:55,0
DA:56,0
DA:57,0
DA:58,0
DA:59,0
DA:60,0
DA:61,0
DA:62,0
DA:65,0
DA:66,0
DA:67,0
DA:68,0
DA:69,0
DA:70,0
DA:71,0
DA:72,0
DA:73,0
DA:74,0
DA:76,0
DA:77,0
DA:78,0
DA:81,0
DA:82,0
DA:83,0
DA:84,0
DA:85,0
DA:86,0
DA:87,0
DA:88,0
DA:90,0
DA:92,0
DA:93,0
BRF:0
BRH:0
LF:61
LH:0
end_of_record
SF:/app/src/middleware/validation.rs
FN:13,_RNCNvNtNtCs5LEo9ZyIjY9_12speicherwald10middleware10validation27validate_request_middleware0B7_
FN:13,_RNvNtNtCs5LEo9ZyIjY9_12speicherwald10middleware10validation27validate_request_middleware
FN:88,_RNvNtNtCs5LEo9ZyIjY9_12speicherwald10middleware10validation13validate_uuid
FN:104,_RNvNtNtCs5LEo9ZyIjY9_12speicherwald10middleware10validation18validate_file_path
FN:246,_RNvNtNtCs5LEo9ZyIjY9_12speicherwald10middleware10validation20sanitize_for_logging
FN:192,_RNvNtNtCs5LEo9ZyIjY9_12speicherwald10middleware10validation21validate_scan_options
FN:66,_RNvNtNtCs5LEo9ZyIjY9_12speicherwald10middleware10validation23contains_path_traversal
FN:77,_RNvNtNtCs5LEo9ZyIjY9_12speicherwald10middleware10validation24is_suspicious_user_agent
FN:89,_RNCNvNtNtCs5LEo9ZyIjY9_12speicherwald10middleware10validation13validate_uuid0B7_
FN:248,_RNCNvNtNtCs5LEo9ZyIjY9_12speicherwald10middleware10validation20sanitize_for_logging0B7_
FN:278,_RNvNtNtNtCs5LEo9ZyIjY9_12speicherwald10middleware10validation5testss_20test_uuid_validation
FN:285,_RNvNtNtNtCs5LEo9ZyIjY9_12speicherwald10middleware10validation5testss_25test_file_path_validation
FN:313,_RNvNtNtNtCs5LEo9ZyIjY9_12speicherwald10middleware10validation5testss_25test_sanitize_for_logging
FN:268,_RNvNtNtNtCs5LEo9ZyIjY9_12speicherwald10middleware10validation5testss_27test_suspicious_user_agents
FN:303,_RNvNtNtNtCs5LEo9ZyIjY9_12speicherwald10middleware10validation5testss_28test_scan_options_validation
FN:256,_RNvNtNtNtCs5LEo9ZyIjY9_12speicherwald10middleware10validation5testss_29test_path_traversal_detection
FN:89,_RNCNvNtNtCs7btOnopyFbT_12speicherwald10middleware10validation13validate_uuid0B7_
FN:248,_RNCNvNtNtCs7btOnopyFbT_12speicherwald10middleware10validation20sanitize_for_logging0B7_
FN:88,_RNvNtNtCs7btOnopyFbT_12speicherwald10middleware10validation13validate_uuid
FN:104,_RNvNtNtCs7btOnopyFbT_12speicherwald10middleware10validation18validate_file_path
FN:246,_RNvNtNtCs7btOnopyFbT_12speicherwald10middleware10validation20sanitize_for_logging
FN:192,_RNvNtNtCs7btOnopyFbT_12speicherwald10middleware10validation21validate_scan_options
FN:66,_RNvNtNtCs7btOnopyFbT_12speicherwald10middleware10validation23contains_path_traversal
FN:77,_RNvNtNtCs7btOnopyFbT_12speicherwald10middleware10validation24is_suspicious_user_agent
FN:278,_RNvNtNtNtCs7btOnopyFbT_12speicherwald10middleware10validation5testss_20test_uuid_validation
FN:285,_RNvNtNtNtCs7btOnopyFbT_12speicherwald10middleware10validation5testss_25test_file_path_validation
FN:313,_RNvNtNtNtCs7btOnopyFbT_12speicherwald10middleware10validation5testss_25test_sanitize_for_logging
FN:268,_RNvNtNtNtCs7btOnopyFbT_12speicherwald10middleware10validation5testss_27test_suspicious_user_agents
FN:303,_RNvNtNtNtCs7btOnopyFbT_12speicherwald10middleware10validation5testss_28test_scan_options_validation
FN:256,_RNvNtNtNtCs7btOnopyFbT_12speicherwald10middleware10validation5testss_29test_path_traversal_detection
FN:13,_RNCNvNtNtCs7btOnopyFbT_12speicherwald10middleware10validation27validate_request_middleware0B7_
FN:13,_RNvNtNtCs7btOnopyFbT_12speicherwald10middleware10validation27validate_request_middleware
FNDA:0,_RNCNvNtNtCs5LEo9ZyIjY9_12speicherwald10middleware10validation27validate_request_middleware0B7_
FNDA:0,_RNvNtNtCs5LEo9ZyIjY9_12speicherwald10middleware10validation27validate_request_middleware
FNDA:3,_RNvNtNtCs5LEo9ZyIjY9_12speicherwald10middleware10validation13validate_uuid
FNDA:5,_RNvNtNtCs5LEo9ZyIjY9_12speicherwald10middleware10validation18validate_file_path
FNDA:4,_RNvNtNtCs5LEo9ZyIjY9_12speicherwald10middleware10validation20sanitize_for_logging
FNDA:5,_RNvNtNtCs5LEo9ZyIjY9_12speicherwald10middleware10validation21validate_scan_options
FNDA:11,_RNvNtNtCs5LEo9ZyIjY9_12speicherwald10middleware10validation23contains_path_traversal
FNDA:5,_RNvNtNtCs5LEo9ZyIjY9_12speicherwald10middleware10validation24is_suspicious_user_agent
FNDA:2,_RNCNvNtNtCs5LEo9ZyIjY9_12speicherwald10middleware10validation13validate_uuid0B7_
FNDA:252,_RNCNvNtNtCs5LEo9ZyIjY9_12speicherwald10middleware10validation20sanitize_for_logging0B7_
FNDA:1,_RNvNtNtNtCs5LEo9ZyIjY9_12speicherwald10middleware10validation5testss_20test_uuid_validation
FNDA:1,_RNvNtNtNtCs5LEo9ZyIjY9_12speicherwald10middleware10validation5testss_25test_file_path_validation
FNDA:1,_RNvNtNtNtCs5LEo9ZyIjY9_12speicherwald10middleware10validation5testss_25test_sanitize_for_logging
FNDA:1,_RNvNtNtNtCs5LEo9ZyIjY9_12speicherwald10middleware10validation5testss_27test_suspicious_user_agents
FNDA:1,_RNvNtNtNtCs5LEo9ZyIjY9_12speicherwald10middleware10validation5testss_28test_scan_options_validation
FNDA:1,_RNvNtNtNtCs5LEo9ZyIjY9_12speicherwald10middleware10validation5testss_29test_path_traversal_detection
FNDA:2,_RNCNvNtNtCs7btOnopyFbT_12speicherwald10middleware10validation13validate_uuid0B7_
FNDA:252,_RNCNvNtNtCs7btOnopyFbT_12speicherwald10middleware10validation20sanitize_for_logging0B7_
FNDA:3,_RNvNtNtCs7btOnopyFbT_12speicherwald10middleware10validation13validate_uuid
FNDA:5,_RNvNtNtCs7btOnopyFbT_12speicherwald10middleware10validation18validate_file_path
FNDA:4,_RNvNtNtCs7btOnopyFbT_12speicherwald10middleware10validation20sanitize_for_logging
FNDA:5,_RNvNtNtCs7btOnopyFbT_12speicherwald10middleware10validation21validate_scan_options
FNDA:11,_RNvNtNtCs7btOnopyFbT_12speicherwald10middleware10validation23contains_path_traversal
FNDA:5,_RNvNtNtCs7btOnopyFbT_12speicherwald10middleware10validation24is_suspicious_user_agent
FNDA:1,_RNvNtNtNtCs7btOnopyFbT_12speicherwald10middleware10validation5testss_20test_uuid_validation
FNDA:1,_RNvNtNtNtCs7btOnopyFbT_12speicherwald10middleware10validation5testss_25test_file_path_validation
FNDA:1,_RNvNtNtNtCs7btOnopyFbT_12speicherwald10middleware10validation5testss_25test_sanitize_for_logging
FNDA:1,_RNvNtNtNtCs7btOnopyFbT_12speicherwald10middleware10validation5testss_27test_suspicious_user_agents
FNDA:1,_RNvNtNtNtCs7btOnopyFbT_12speicherwald10middleware10validation5testss_28test_scan_options_validation
FNDA:1,_RNvNtNtNtCs7btOnopyFbT_12speicherwald10middleware10validation5testss_29test_path_traversal_detection
FNDA:0,_RNCNvNtNtCs7btOnopyFbT_12speicherwald10middleware10validation27validate_request_middleware0B7_
FNDA:0,_RNvNtNtCs7btOnopyFbT_12speicherwald10middleware10validation27validate_request_middleware
FNF:16
FNH:14
DA:13,0
DA:15,0
DA:16,0
DA:17,0
DA:18,0
DA:19,0
DA:20,0
DA:21,0
DA:22,0
DA:23,0
DA:24,0
DA:25,0
DA:26,0
DA:27,0
DA:28,0
DA:31,0
DA:32,0
DA:33,0
DA:34,0
DA:35,0
DA:36,0
DA:37,0
DA:40,0
DA:41,0
DA:42,0
DA:43,0
DA:45,0
DA:46,0
DA:47,0
DA:48,0
DA:49,0
DA:50,0
DA:51,0
DA:52,0
DA:53,0
DA:54,0
DA:55,0
DA:56,0
DA:57,0
DA:58,0
DA:59,0
DA:60,0
DA:62,0
DA:63,0
DA:66,22
DA:67,22
DA:68,14
DA:69,14
DA:70,14
DA:71,12
DA:72,12
DA:73,12
DA:74,22
DA:77,10
DA:78,10
DA:79,10
DA:80,8
DA:81,8
DA:82,6
DA:83,4
DA:84,4
DA:85,10
DA:88,6
DA:89,6
DA:90,4
DA:91,4
DA:92,4
DA:93,4
DA:94,4
DA:95,4
DA:96,4
DA:97,4
DA:98,4
DA:99,4
DA:100,4
DA:101,6
DA:104,10
DA:106,10
DA:107,2
DA:108,2
DA:109,2
DA:110,2
DA:111,2
DA:112,2
DA:113,2
DA:114,2
DA:115,2
DA:116,2
DA:117,8
DA:120,8
DA:121,2
DA:122,2
DA:123,2
DA:124,2
DA:125,2
DA:126,2
DA:127,2
DA:128,2
DA:129,2
DA:130,2
DA:131,6
DA:135,6
DA:136,2
DA:137,2
DA:138,2
DA:139,2
DA:140,2
DA:141,2
DA:142,2
DA:143,2
DA:144,2
DA:145,2
DA:146,4
DA:188,4
DA:189,10
DA:192,10
DA:193,10
DA:194,10
DA:195,10
DA:197,10
DA:199,8
DA:200,2
DA:201,2
DA:202,2
DA:203,2
DA:204,2
DA:205,2
DA:206,2
DA:207,2
DA:208,2
DA:209,2
DA:210,6
DA:211,2
DA:214,8
DA:216,6
DA:217,2
DA:218,2
DA:219,2
DA:220,2
DA:221,2
DA:222,2
DA:223,2
DA:224,2
DA:225,2
DA:226,2
DA:227,4
DA:228,4
DA:229,2
DA:230,2
DA:231,2
DA:232,2
DA:233,2
DA:234,2
DA:235,2
DA:236,2
DA:237,2
DA:238,2
DA:239,2
DA:240,2
DA:242,4
DA:243,10
DA:246,8
DA:248,504
DA:249,8
DA:256,2
DA:257,2
DA:258,2
DA:259,2
DA:260,2
DA:261,2
DA:263,2
DA:264,2
DA:265,2
DA:268,2
DA:269,2
DA:270,2
DA:271,2
DA:273,2
DA:274,2
DA:275,2
DA:278,2
DA:279,2
DA:280,2
DA:281,2
DA:282,2
DA:285,2
DA:286,2
DA:287,2
DA:289,2
DA:290,2
DA:298,2
DA:299,2
DA:300,2
DA:303,2
DA:304,2
DA:305,2
DA:307,2
DA:308,2
DA:309,2
DA:310,2
DA:313,2
DA:314,2
DA:315,2
DA:317,2
DA:318,2
DA:319,2
DA:320,2
DA:321,2
DA:323,2
DA:324,2
DA:325,2
BRF:0
BRH:0
LF:214
LH:169
end_of_record
SF:/app/src/routes/drives.rs
FN:94,_RNCNvNtNtCs5LEo9ZyIjY9_12speicherwald6routes6drives11list_drives0B7_
FN:94,_RNvNtNtCs5LEo9ZyIjY9_12speicherwald6routes6drives11list_drives
FN:94,_RNCNvNtNtCs7btOnopyFbT_12speicherwald6routes6drives11list_drives0B7_
FN:94,_RNvNtNtCs7btOnopyFbT_12speicherwald6routes6drives11list_drives
FNDA:0,_RNCNvNtNtCs5LEo9ZyIjY9_12speicherwald6routes6drives11list_drives0B7_
FNDA:0,_RNvNtNtCs5LEo9ZyIjY9_12speicherwald6routes6drives11list_drives
FNDA:0,_RNCNvNtNtCs7btOnopyFbT_12speicherwald6routes6drives11list_drives0B7_
FNDA:0,_RNvNtNtCs7btOnopyFbT_12speicherwald6routes6drives11list_drives
FNF:2
FNH:0
DA:94,0
DA:96,0
DA:97,0
DA:98,0
DA:99,0
DA:101,0
DA:102,0
BRF:0
BRH:0
LF:8
LH:0
end_of_record
SF:/app/src/routes/export.rs
FN:190,_RNCNCNvNtNtCs5LEo9ZyIjY9_12speicherwald6routes6export11export_json00B9_
FN:215,_RNCNCNvNtNtCs5LEo9ZyIjY9_12speicherwald6routes6export11export_json0s_0B9_
FN:72,_RNCNCNvNtNtCs5LEo9ZyIjY9_12speicherwald6routes6export11export_scan00B9_
FN:73,_RNCNCNvNtNtCs5LEo9ZyIjY9_12speicherwald6routes6export11export_scan0s_0B9_
FN:78,_RNCNvNtNtCs5LEo9ZyIjY9_12speicherwald6routes6export10export_csv0B7_
FN:170,_RNCNvNtNtCs5LEo9ZyIjY9_12speicherwald6routes6export11export_json0B7_
FN:56,_RNCNvNtNtCs5LEo9ZyIjY9_12speicherwald6routes6export11export_scan0B7_
FN:246,_RNCNvNtNtCs5LEo9ZyIjY9_12speicherwald6routes6export17export_statistics0B7_
FN:238,_RNvNtNtCs5LEo9ZyIjY9_12speicherwald6routes6export10escape_csv
FN:78,_RNvNtNtCs5LEo9ZyIjY9_12speicherwald6routes6export10export_csv
FN:165,_RNvNtNtCs5LEo9ZyIjY9_12speicherwald6routes6export11export_json
FN:52,_RNvNtNtCs5LEo9ZyIjY9_12speicherwald6routes6export11export_scan
FN:243,_RNvNtNtCs5LEo9ZyIjY9_12speicherwald6routes6export17export_statistics
FN:190,_RNCNCNvNtNtCs7btOnopyFbT_12speicherwald6routes6export11export_json00B9_
FN:215,_RNCNCNvNtNtCs7btOnopyFbT_12speicherwald6routes6export11export_json0s_0B9_
FN:72,_RNCNCNvNtNtCs7btOnopyFbT_12speicherwald6routes6export11export_scan00B9_
FN:73,_RNCNCNvNtNtCs7btOnopyFbT_12speicherwald6routes6export11export_scan0s_0B9_
FN:78,_RNCNvNtNtCs7btOnopyFbT_12speicherwald6routes6export10export_csv0B7_
FN:170,_RNCNvNtNtCs7btOnopyFbT_12speicherwald6routes6export11export_json0B7_
FN:56,_RNCNvNtNtCs7btOnopyFbT_12speicherwald6routes6export11export_scan0B7_
FN:246,_RNCNvNtNtCs7btOnopyFbT_12speicherwald6routes6export17export_statistics0B7_
FN:238,_RNvNtNtCs7btOnopyFbT_12speicherwald6routes6export10escape_csv
FN:78,_RNvNtNtCs7btOnopyFbT_12speicherwald6routes6export10export_csv
FN:165,_RNvNtNtCs7btOnopyFbT_12speicherwald6routes6export11export_json
FN:52,_RNvNtNtCs7btOnopyFbT_12speicherwald6routes6export11export_scan
FN:243,_RNvNtNtCs7btOnopyFbT_12speicherwald6routes6export17export_statistics
FNDA:0,_RNCNCNvNtNtCs5LEo9ZyIjY9_12speicherwald6routes6export11export_json00B9_
FNDA:0,_RNCNCNvNtNtCs5LEo9ZyIjY9_12speicherwald6routes6export11export_json0s_0B9_
FNDA:0,_RNCNCNvNtNtCs5LEo9ZyIjY9_12speicherwald6routes6export11export_scan00B9_
FNDA:0,_RNCNCNvNtNtCs5LEo9ZyIjY9_12speicherwald6routes6export11export_scan0s_0B9_
FNDA:0,_RNCNvNtNtCs5LEo9ZyIjY9_12speicherwald6routes6export10export_csv0B7_
FNDA:0,_RNCNvNtNtCs5LEo9ZyIjY9_12speicherwald6routes6export11export_json0B7_
FNDA:0,_RNCNvNtNtCs5LEo9ZyIjY9_12speicherwald6routes6export11export_scan0B7_
FNDA:0,_RNCNvNtNtCs5LEo9ZyIjY9_12speicherwald6routes6export17export_statistics0B7_
FNDA:0,_RNvNtNtCs5LEo9ZyIjY9_12speicherwald6routes6export10escape_csv
FNDA:0,_RNvNtNtCs5LEo9ZyIjY9_12speicherwald6routes6export10export_csv
FNDA:0,_RNvNtNtCs5LEo9ZyIjY9_12speicherwald6routes6export11export_json
FNDA:0,_RNvNtNtCs5LEo9ZyIjY9_12speicherwald6routes6export11export_scan
FNDA:0,_RNvNtNtCs5LEo9ZyIjY9_12speicherwald6routes6export17export_statistics
FNDA:0,_RNCNCNvNtNtCs7btOnopyFbT_12speicherwald6routes6export11export_json00B9_
FNDA:0,_RNCNCNvNtNtCs7btOnopyFbT_12speicherwald6routes6export11export_json0s_0B9_
FNDA:0,_RNCNCNvNtNtCs7btOnopyFbT_12speicherwald6routes6export11export_scan00B9_
FNDA:0,_RNCNCNvNtNtCs7btOnopyFbT_12speicherwald6routes6export11export_scan0s_0B9_
FNDA:0,_RNCNvNtNtCs7btOnopyFbT_12speicherwald6routes6export10export_csv0B7_
FNDA:0,_RNCNvNtNtCs7btOnopyFbT_12speicherwald6routes6export11export_json0B7_
FNDA:0,_RNCNvNtNtCs7btOnopyFbT_12speicherwald6routes6export11export_scan0B7_
FNDA:0,_RNCNvNtNtCs7btOnopyFbT_12speicherwald6routes6export17export_statistics0B7_
FNDA:0,_RNvNtNtCs7btOnopyFbT_12speicherwald6routes6export10escape_csv
FNDA:0,_RNvNtNtCs7btOnopyFbT_12speicherwald6routes6export10export_csv
FNDA:0,_RNvNtNtCs7btOnopyFbT_12speicherwald6routes6export11export_json
FNDA:0,_RNvNtNtCs7btOnopyFbT_12speicherwald6routes6export11export_scan
FNDA:0,_RNvNtNtCs7btOnopyFbT_12speicherwald6routes6export17export_statistics
FNF:13
FNH:0
DA:52,0
DA:53,0
DA:54,0
DA:55,0
DA:56,0
DA:58,0
DA:59,0
DA:60,0
DA:61,0
DA:63,0
DA:64,0
DA:65,0
DA:67,0
DA:68,0
DA:69,0
DA:71,0
DA:72,0
DA:73,0
DA:74,0
DA:76,0
DA:78,0
DA:85,0
DA:86,0
DA:88,0
DA:90,0
DA:91,0
DA:92,0
DA:93,0
DA:94,0
DA:95,0
DA:96,0
DA:97,0
DA:98,0
DA:99,0
DA:101,0
DA:102,0
DA:103,0
DA:104,0
DA:105,0
DA:106,0
DA:107,0
DA:108,0
DA:109,0
DA:111,0
DA:112,0
DA:113,0
DA:114,0
DA:116,0
DA:123,0
DA:125,0
DA:126,0
DA:127,0
DA:129,0
DA:130,0
DA:131,0
DA:132,0
DA:133,0
DA:134,0
DA:135,0
DA:136,0
DA:137,0
DA:138,0
DA:140,0
DA:141,0
DA:142,0
DA:143,0
DA:144,0
DA:145,0
DA:146,0
DA:147,0
DA:148,0
DA:149,0
DA:150,0
DA:151,0
DA:152,0
DA:153,0
DA:154,0
DA:156,0
DA:157,0
DA:158,0
DA:159,0
DA:160,0
DA:162,0
DA:163,0
DA:165,0
DA:166,0
DA:167,0
DA:168,0
DA:169,0
DA:170,0
DA:171,0
DA:172,0
DA:173,0
DA:174,0
DA:175,0
DA:176,0
DA:177,0
DA:179,0
DA:180,0
DA:181,0
DA:182,0
DA:183,0
DA:184,0
DA:185,0
DA:187,0
DA:188,0
DA:189,0
DA:190,0
DA:191,0
DA:192,0
DA:193,0
DA:194,0
DA:195,0
DA:196,0
DA:197,0
DA:198,0
DA:199,0
DA:201,0
DA:202,0
DA:204,0
DA:205,0
DA:206,0
DA:207,0
DA:208,0
DA:209,0
DA:210,0
DA:212,0
DA:213,0
DA:214,0
DA:215,0
DA:216,0
DA:217,0
DA:218,0
DA:219,0
DA:220,0
DA:222,0
DA:223,0
DA:227,0
DA:228,0
DA:229,0
DA:230,0
DA:231,0
DA:232,0
DA:233,0
DA:235,0
DA:236,0
DA:238,0
DA:239,0
DA:240,0
DA:243,0
DA:244,0
DA:245,0
DA:246,0
DA:247,0
DA:248,0
DA:249,0
DA:250,0
DA:251,0
DA:252,0
DA:253,0
DA:254,0
DA:255,0
DA:256,0
DA:257,0
DA:258,0
DA:259,0
DA:260,0
DA:261,0
DA:262,0
DA:263,0
DA:264,0
DA:265,0
DA:266,0
DA:267,0
DA:268,0
DA:269,0
DA:270,0
DA:272,0
DA:273,0
DA:274,0
DA:275,0
DA:276,0
DA:277,0
DA:278,0
DA:279,0
DA:280,0
DA:281,0
DA:282,0
DA:283,0
DA:284,0
DA:285,0
DA:286,0
DA:287,0
DA:288,0
DA:291,0
DA:293,0
DA:295,0
BRF:0
BRH:0
LF:203
LH:0
end_of_record
SF:/app/src/routes/health.rs
FN:28,_RNCNvNtNtCs5LEo9ZyIjY9_12speicherwald6routes6health18metrics_prometheus0B7_
FN:14,_RNCNvNtNtCs5LEo9ZyIjY9_12speicherwald6routes6health6readyz0B7_
FN:9,_RNCNvNtNtCs5LEo9ZyIjY9_12speicherwald6routes6health7healthz0B7_
FN:22,_RNCNvNtNtCs5LEo9ZyIjY9_12speicherwald6routes6health7metrics0B7_
FN:52,_RNCNvNtNtCs5LEo9ZyIjY9_12speicherwald6routes6health7version0B7_
FN:28,_RNvNtNtCs5LEo9ZyIjY9_12speicherwald6routes6health18metrics_prometheus
FN:14,_RNvNtNtCs5LEo9ZyIjY9_12speicherwald6routes6health6readyz
FN:9,_RNvNtNtCs5LEo9ZyIjY9_12speicherwald6routes6health7healthz
FN:22,_RNvNtNtCs5LEo9ZyIjY9_12speicherwald6routes6health7metrics
FN:52,_RNvNtNtCs5LEo9ZyIjY9_12speicherwald6routes6health7version
FN:28,_RNCNvNtNtCs7btOnopyFbT_12speicherwald6routes6health18metrics_prometheus0B7_
FN:14,_RNCNvNtNtCs7btOnopyFbT_12speicherwald6routes6health6readyz0B7_
FN:9,_RNCNvNtNtCs7btOnopyFbT_12speicherwald6routes6health7healthz0B7_
FN:22,_RNCNvNtNtCs7btOnopyFbT_12speicherwald6routes6health7metrics0B7_
FN:52,_RNCNvNtNtCs7btOnopyFbT_12speicherwald6routes6health7version0B7_
FN:28,_RNvNtNtCs7btOnopyFbT_12speicherwald6routes6health18metrics_prometheus
FN:14,_RNvNtNtCs7btOnopyFbT_12speicherwald6routes6health6readyz
FN:9,_RNvNtNtCs7btOnopyFbT_12speicherwald6routes6health7healthz
FN:22,_RNvNtNtCs7btOnopyFbT_12speicherwald6routes6health7metrics
FN:52,_RNvNtNtCs7btOnopyFbT_12speicherwald6routes6health7version
FNDA:0,_RNCNvNtNtCs5LEo9ZyIjY9_12speicherwald6routes6health18metrics_prometheus0B7_
FNDA:0,_RNCNvNtNtCs5LEo9ZyIjY9_12speicherwald6routes6health6readyz0B7_
FNDA:0,_RNCNvNtNtCs5LEo9ZyIjY9_12speicherwald6routes6health7healthz0B7_
FNDA:0,_RNCNvNtNtCs5LEo9ZyIjY9_12speicherwald6routes6health7metrics0B7_
FNDA:0,_RNCNvNtNtCs5LEo9ZyIjY9_12speicherwald6routes6health7version0B7_
FNDA:0,_RNvNtNtCs5LEo9ZyIjY9_12speicherwald6routes6health18metrics_prometheus
FNDA:0,_RNvNtNtCs5LEo9ZyIjY9_12speicherwald6routes6health6readyz
FNDA:0,_RNvNtNtCs5LEo9ZyIjY9_12speicherwald6routes6health7healthz
FNDA:0,_RNvNtNtCs5LEo9ZyIjY9_12speicherwald6routes6health7metrics
FNDA:0,_RNvNtNtCs5LEo9ZyIjY9_12speicherwald6routes6health7version
FNDA:0,_RNCNvNtNtCs7btOnopyFbT_12speicherwald6routes6health18metrics_prometheus0B7_
FNDA:0,_RNCNvNtNtCs7btOnopyFbT_12speicherwald6routes6health6readyz0B7_
FNDA:0,_RNCNvNtNtCs7btOnopyFbT_12speicherwald6routes6health7healthz0B7_
FNDA:0,_RNCNvNtNtCs7btOnopyFbT_12speicherwald6routes6health7metrics0B7_
FNDA:0,_RNCNvNtNtCs7btOnopyFbT_12speicherwald6routes6health7version0B7_
FNDA:0,_RNvNtNtCs7btOnopyFbT_12speicherwald6routes6health18metrics_prometheus
FNDA:0,_RNvNtNtCs7btOnopyFbT_12speicherwald6routes6health6readyz
FNDA:0,_RNvNtNtCs7btOnopyFbT_12speicherwald6routes6health7healthz
FNDA:0,_RNvNtNtCs7btOnopyFbT_12speicherwald6routes6health7metrics
FNDA:0,_RNvNtNtCs7btOnopyFbT_12speicherwald6routes6health7version
FNF:10
FNH:0
DA:9,0
DA:10,0
DA:11,0
DA:14,0
DA:15,0
DA:16,0
DA:17,0
DA:19,0
DA:22,0
DA:23,0
DA:24,0
DA:25,0
DA:28,0
DA:29,0
DA:30,0
DA:31,0
DA:32,0
DA:33,0
DA:34,0
DA:35,0
DA:36,0
DA:37,0
DA:38,0
DA:48,0
DA:49,0
DA:52,0
DA:53,0
DA:54,0
DA:55,0
DA:56,0
DA:57,0
DA:58,0
DA:59,0
DA:61,0
DA:62,0
DA:63,0
DA:64,0
DA:67,0
DA:68,0
BRF:0
BRH:0
LF:44
LH:0
end_of_record
SF:/app/src/routes/scans.rs
FN:330,_RNCNCNCNvNtNtCs5LEo9ZyIjY9_12speicherwald6routes5scans11scan_events0s_00Bb_
FN:365,_RNCNCNCNvNtNtCs5LEo9ZyIjY9_12speicherwald6routes5scans14get_atime_secs000Bb_
FN:368,_RNCNCNCNvNtNtCs5LEo9ZyIjY9_12speicherwald6routes5scans14get_atime_secs00s0_0Bb_
FN:367,_RNCNCNCNvNtNtCs5LEo9ZyIjY9_12speicherwald6routes5scans14get_atime_secs00s_0Bb_
FN:350,_RNCNCNCNvNtNtCs5LEo9ZyIjY9_12speicherwald6routes5scans14get_mtime_secs000Bb_
FN:353,_RNCNCNCNvNtNtCs5LEo9ZyIjY9_12speicherwald6routes5scans14get_mtime_secs00s0_0Bb_
FN:352,_RNCNCNCNvNtNtCs5LEo9ZyIjY9_12speicherwald6routes5scans14get_mtime_secs00s_0Bb_
FN:815,_RNCNCNvNtNtCs5LEo9ZyIjY9_12speicherwald6routes5scans10get_recent00B9_
FN:230,_RNCNCNvNtNtCs5LEo9ZyIjY9_12speicherwald6routes5scans10list_scans00B9_
FN:48,_RNCNCNvNtNtCs5LEo9ZyIjY9_12speicherwald6routes5scans11create_scan00B9_
FN:60,_RNCNCNvNtNtCs5LEo9ZyIjY9_12speicherwald6routes5scans11create_scan0s0_0B9_
FN:78,_RNCNCNvNtNtCs5LEo9ZyIjY9_12speicherwald6routes5scans11create_scan0s1_0B9_
FN:125,_RNCNCNvNtNtCs5LEo9ZyIjY9_12speicherwald6routes5scans11create_scan0s2_0B9_
FN:208,_RNCNCNvNtNtCs5LEo9ZyIjY9_12speicherwald6routes5scans11create_scan0s3_0B9_
FN:209,_RNCNCNvNtNtCs5LEo9ZyIjY9_12speicherwald6routes5scans11create_scan0s4_0B9_
FN:53,_RNCNCNvNtNtCs5LEo9ZyIjY9_12speicherwald6routes5scans11create_scan0s_0B9_
FN:328,_RNCNCNvNtNtCs5LEo9ZyIjY9_12speicherwald6routes5scans11scan_events00B9_
FN:328,_RNCNCNvNtNtCs5LEo9ZyIjY9_12speicherwald6routes5scans11scan_events0s_0B9_
FN:363,_RNCNCNvNtNtCs5LEo9ZyIjY9_12speicherwald6routes5scans14get_atime_secs00B9_
FN:348,_RNCNCNvNtNtCs5LEo9ZyIjY9_12speicherwald6routes5scans14get_mtime_secs00B9_
FN:591,_RNCNCNvNtNtCs5LEo9ZyIjY9_12speicherwald6routes5scans8get_list00B9_
FN:613,_RNCNCNvNtNtCs5LEo9ZyIjY9_12speicherwald6routes5scans8get_list0s0_0B9_
FN:614,_RNCNCNvNtNtCs5LEo9ZyIjY9_12speicherwald6routes5scans8get_list0s1_0B9_
FN:666,_RNCNCNvNtNtCs5LEo9ZyIjY9_12speicherwald6routes5scans8get_list0s2_0B9_
FN:684,_RNCNCNvNtNtCs5LEo9ZyIjY9_12speicherwald6routes5scans8get_list0s3_0B9_
FN:612,_RNCNCNvNtNtCs5LEo9ZyIjY9_12speicherwald6routes5scans8get_list0s_0B9_
FN:718,_RNCNvNtNtCs5LEo9ZyIjY9_12speicherwald6routes5scans10get_recent0B7_
FN:214,_RNCNvNtNtCs5LEo9ZyIjY9_12speicherwald6routes5scans10list_scans0B7_
FN:828,_RNCNvNtNtCs5LEo9ZyIjY9_12speicherwald6routes5scans10sort_items0B7_
FN:830,_RNCNvNtNtCs5LEo9ZyIjY9_12speicherwald6routes5scans10sort_itemss_0B7_
FN:286,_RNCNvNtNtCs5LEo9ZyIjY9_12speicherwald6routes5scans11cancel_scan0B7_
FN:35,_RNCNvNtNtCs5LEo9ZyIjY9_12speicherwald6routes5scans11create_scan0B7_
FN:318,_RNCNvNtNtCs5LEo9ZyIjY9_12speicherwald6routes5scans11scan_events0B7_
FN:361,_RNCNvNtNtCs5LEo9ZyIjY9_12speicherwald6routes5scans14get_atime_secs0B7_
FN:346,_RNCNvNtNtCs5LEo9ZyIjY9_12speicherwald6routes5scans14get_mtime_secs0B7_
FN:500,_RNCNvNtNtCs5LEo9ZyIjY9_12speicherwald6routes5scans7get_top0B7_
FN:570,_RNCNvNtNtCs5LEo9ZyIjY9_12speicherwald6routes5scans8get_list0B7_
FN:245,_RNCNvNtNtCs5LEo9ZyIjY9_12speicherwald6routes5scans8get_scan0B7_
FN:397,_RNCNvNtNtCs5LEo9ZyIjY9_12speicherwald6routes5scans8get_tree0B7_
FN:714,_RNvNtNtCs5LEo9ZyIjY9_12speicherwald6routes5scans10get_recent
FN:214,_RNvNtNtCs5LEo9ZyIjY9_12speicherwald6routes5scans10list_scans
FN:825,_RNvNtNtCs5LEo9ZyIjY9_12speicherwald6routes5scans10sort_items
FN:282,_RNvNtNtCs5LEo9ZyIjY9_12speicherwald6routes5scans11cancel_scan
FN:31,_RNvNtNtCs5LEo9ZyIjY9_12speicherwald6routes5scans11create_scan
FN:852,_RNvNtNtCs5LEo9ZyIjY9_12speicherwald6routes5scans11get_logical
FN:315,_RNvNtNtCs5LEo9ZyIjY9_12speicherwald6routes5scans11scan_events
FN:339,_RNvNtNtCs5LEo9ZyIjY9_12speicherwald6routes5scans14chrono_now_utc
FN:361,_RNvNtNtCs5LEo9ZyIjY9_12speicherwald6routes5scans14get_atime_secs
FN:346,_RNvNtNtCs5LEo9ZyIjY9_12speicherwald6routes5scans14get_mtime_secs
FN:375,_RNvNtNtCs5LEo9ZyIjY9_12speicherwald6routes5scans20normalize_query_path
FN:858,_RNvNtNtCs5LEo9ZyIjY9_12speicherwald6routes5scans6is_dir
FN:496,_RNvNtNtCs5LEo9ZyIjY9_12speicherwald6routes5scans7get_top
FN:566,_RNvNtNtCs5LEo9ZyIjY9_12speicherwald6routes5scans8get_list
FN:840,_RNvNtNtCs5LEo9ZyIjY9_12speicherwald6routes5scans8get_name
FN:245,_RNvNtNtCs5LEo9ZyIjY9_12speicherwald6routes5scans8get_scan
FN:393,_RNvNtNtCs5LEo9ZyIjY9_12speicherwald6routes5scans8get_tree
FN:846,_RNvNtNtCs5LEo9ZyIjY9_12speicherwald6routes5scans9get_alloc
FN:869,_RNvNtNtCs5LEo9ZyIjY9_12speicherwald6routes5scans9get_atime
FN:862,_RNvNtNtCs5LEo9ZyIjY9_12speicherwald6routes5scans9get_mtime
FN:330,_RNCNCNCNvNtNtCs7btOnopyFbT_12speicherwald6routes5scans11scan_events0s_00Bb_
FN:365,_RNCNCNCNvNtNtCs7btOnopyFbT_12speicherwald6routes5scans14get_atime_secs000Bb_
FN:368,_RNCNCNCNvNtNtCs7btOnopyFbT_12speicherwald6routes5scans14get_atime_secs00s0_0Bb_
FN:367,_RNCNCNCNvNtNtCs7btOnopyFbT_12speicherwald6routes5scans14get_atime_secs00s_0Bb_
FN:350,_RNCNCNCNvNtNtCs7btOnopyFbT_12speicherwald6routes5scans14get_mtime_secs000Bb_
FN:353,_RNCNCNCNvNtNtCs7btOnopyFbT_12speicherwald6routes5scans14get_mtime_secs00s0_0Bb_
FN:352,_RNCNCNCNvNtNtCs7btOnopyFbT_12speicherwald6routes5scans14get_mtime_secs00s_0Bb_
FN:815,_RNCNCNvNtNtCs7btOnopyFbT_12speicherwald6routes5scans10get_recent00B9_
FN:230,_RNCNCNvNtNtCs7btOnopyFbT_12speicherwald6routes5scans10list_scans00B9_
FN:48,_RNCNCNvNtNtCs7btOnopyFbT_12speicherwald6routes5scans11create_scan00B9_
FN:60,_RNCNCNvNtNtCs7btOnopyFbT_12speicherwald6routes5scans11create_scan0s0_0B9_
FN:78,_RNCNCNvNtNtCs7btOnopyFbT_12speicherwald6routes5scans11create_scan0s1_0B9_
FN:125,_RNCNCNvNtNtCs7btOnopyFbT_12speicherwald6routes5scans11create_scan0s2_0B9_
FN:208,_RNCNCNvNtNtCs7btOnopyFbT_12speicherwald6routes5scans11create_scan0s3_0B9_
FN:209,_RNCNCNvNtNtCs7btOnopyFbT_12speicherwald6routes5scans11create_scan0s4_0B9_
FN:53,_RNCNCNvNtNtCs7btOnopyFbT_12speicherwald6routes5scans11create_scan0s_0B9_
FN:328,_RNCNCNvNtNtCs7btOnopyFbT_12speicherwald6routes5scans11scan_events00B9_
FN:328,_RNCNCNvNtNtCs7btOnopyFbT_12speicherwald6routes5scans11scan_events0s_0B9_
FN:363,_RNCNCNvNtNtCs7btOnopyFbT_12speicherwald6routes5scans14get_atime_secs00B9_
FN:348,_RNCNCNvNtNtCs7btOnopyFbT_12speicherwald6routes5scans14get_mtime_secs00B9_
FN:591,_RNCNCNvNtNtCs7btOnopyFbT_12speicherwald6routes5scans8get_list00B9_
FN:613,_RNCNCNvNtNtCs7btOnopyFbT_12speicherwald6routes5scans8get_list0s0_0B9_
FN:614,_RNCNCNvNtNtCs7btOnopyFbT_12speicherwald6routes5scans8get_list0s1_0B9_
FN:666,_RNCNCNvNtNtCs7btOnopyFbT_12speicherwald6routes5scans8get_list0s2_0B9_
FN:684,_RNCNCNvNtNtCs7btOnopyFbT_12speicherwald6routes5scans8get_list0s3_0B9_
FN:612,_RNCNCNvNtNtCs7btOnopyFbT_12speicherwald6routes5scans8get_list0s_0B9_
FN:718,_RNCNvNtNtCs7btOnopyFbT_12speicherwald6routes5scans10get_recent0B7_
FN:214,_RNCNvNtNtCs7btOnopyFbT_12speicherwald6routes5scans10list_scans0B7_
FN:828,_RNCNvNtNtCs7btOnopyFbT_12speicherwald6routes5scans10sort_items0B7_
FN:830,_RNCNvNtNtCs7btOnopyFbT_12speicherwald6routes5scans10sort_itemss_0B7_
FN:286,_RNCNvNtNtCs7btOnopyFbT_12speicherwald6routes5scans11cancel_scan0B7_
FN:35,_RNCNvNtNtCs7btOnopyFbT_12speicherwald6routes5scans11create_scan0B7_
FN:318,_RNCNvNtNtCs7btOnopyFbT_12speicherwald6routes5scans11scan_events0B7_
FN:361,_RNCNvNtNtCs7btOnopyFbT_12speicherwald6routes5scans14get_atime_secs0B7_
FN:346,_RNCNvNtNtCs7btOnopyFbT_12speicherwald6routes5scans14get_mtime_secs0B7_
FN:500,_RNCNvNtNtCs7btOnopyFbT_12speicherwald6routes5scans7get_top0B7_
FN:570,_RNCNvNtNtCs7btOnopyFbT_12speicherwald6routes5scans8get_list0B7_
FN:245,_RNCNvNtNtCs7btOnopyFbT_12speicherwald6routes5scans8get_scan0B7_
FN:397,_RNCNvNtNtCs7btOnopyFbT_12speicherwald6routes5scans8get_tree0B7_
FN:714,_RNvNtNtCs7btOnopyFbT_12speicherwald6routes5scans10get_recent
FN:214,_RNvNtNtCs7btOnopyFbT_12speicherwald6routes5scans10list_scans
FN:825,_RNvNtNtCs7btOnopyFbT_12speicherwald6routes5scans10sort_items
FN:282,_RNvNtNtCs7btOnopyFbT_12speicherwald6routes5scans11cancel_scan
FN:31,_RNvNtNtCs7btOnopyFbT_12speicherwald6routes5scans11create_scan
FN:852,_RNvNtNtCs7btOnopyFbT_12speicherwald6routes5scans11get_logical
FN:315,_RNvNtNtCs7btOnopyFbT_12speicherwald6routes5scans11scan_events
FN:339,_RNvNtNtCs7btOnopyFbT_12speicherwald6routes5scans14chrono_now_utc
FN:361,_RNvNtNtCs7btOnopyFbT_12speicherwald6routes5scans14get_atime_secs
FN:346,_RNvNtNtCs7btOnopyFbT_12speicherwald6routes5scans14get_mtime_secs
FN:375,_RNvNtNtCs7btOnopyFbT_12speicherwald6routes5scans20normalize_query_path
FN:858,_RNvNtNtCs7btOnopyFbT_12speicherwald6routes5scans6is_dir
FN:496,_RNvNtNtCs7btOnopyFbT_12speicherwald6routes5scans7get_top
FN:566,_RNvNtNtCs7btOnopyFbT_12speicherwald6routes5scans8get_list
FN:840,_RNvNtNtCs7btOnopyFbT_12speicherwald6routes5scans8get_name
FN:245,_RNvNtNtCs7btOnopyFbT_12speicherwald6routes5scans8get_scan
FN:393,_RNvNtNtCs7btOnopyFbT_12speicherwald6routes5scans8get_tree
FN:846,_RNvNtNtCs7btOnopyFbT_12speicherwald6routes5scans9get_alloc
FN:869,_RNvNtNtCs7btOnopyFbT_12speicherwald6routes5scans9get_atime
FN:862,_RNvNtNtCs7btOnopyFbT_12speicherwald6routes5scans9get_mtime
FNDA:0,_RNCNCNCNvNtNtCs5LEo9ZyIjY9_12speicherwald6routes5scans11scan_events0s_00Bb_
FNDA:0,_RNCNCNCNvNtNtCs5LEo9ZyIjY9_12speicherwald6routes5scans14get_atime_secs000Bb_
FNDA:0,_RNCNCNCNvNtNtCs5LEo9ZyIjY9_12speicherwald6routes5scans14get_atime_secs00s0_0Bb_
FNDA:0,_RNCNCNCNvNtNtCs5LEo9ZyIjY9_12speicherwald6routes5scans14get_atime_secs00s_0Bb_
FNDA:0,_RNCNCNCNvNtNtCs5LEo9ZyIjY9_12speicherwald6routes5scans14get_mtime_secs000Bb_
FNDA:0,_RNCNCNCNvNtNtCs5LEo9ZyIjY9_12speicherwald6routes5scans14get_mtime_secs00s0_0Bb_
FNDA:0,_RNCNCNCNvNtNtCs5LEo9ZyIjY9_12speicherwald6routes5scans14get_mtime_secs00s_0Bb_
FNDA:0,_RNCNCNvNtNtCs5LEo9ZyIjY9_12speicherwald6routes5scans10get_recent00B9_
FNDA:0,_RNCNCNvNtNtCs5LEo9ZyIjY9_12speicherwald6routes5scans10list_scans00B9_
FNDA:0,_RNCNCNvNtNtCs5LEo9ZyIjY9_12speicherwald6routes5scans11create_scan00B9_
FNDA:0,_RNCNCNvNtNtCs5LEo9ZyIjY9_12speicherwald6routes5scans11create_scan0s0_0B9_
FNDA:0,_RNCNCNvNtNtCs5LEo9ZyIjY9_12speicherwald6routes5scans11create_scan0s1_0B9_
FNDA:0,_RNCNCNvNtNtCs5LEo9ZyIjY9_12speicherwald6routes5scans11create_scan0s2_0B9_
FNDA:0,_RNCNCNvNtNtCs5LEo9ZyIjY9_12speicherwald6routes5scans11create_scan0s3_0B9_
FNDA:0,_RNCNCNvNtNtCs5LEo9ZyIjY9_12speicherwald6routes5scans11create_scan0s4_0B9_
FNDA:0,_RNCNCNvNtNtCs5LEo9ZyIjY9_12speicherwald6routes5scans11create_scan0s_0B9_
FNDA:0,_RNCNCNvNtNtCs5LEo9ZyIjY9_12speicherwald6routes5scans11scan_events00B9_
FNDA:0,_RNCNCNvNtNtCs5LEo9ZyIjY9_12speicherwald6routes5scans11scan_events0s_0B9_
FNDA:0,_RNCNCNvNtNtCs5LEo9ZyIjY9_12speicherwald6routes5scans14get_atime_secs00B9_
FNDA:0,_RNCNCNvNtNtCs5LEo9ZyIjY9_12speicherwald6routes5scans14get_mtime_secs00B9_
FNDA:0,_RNCNCNvNtNtCs5LEo9ZyIjY9_12speicherwald6routes5scans8get_list00B9_
FNDA:0,_RNCNCNvNtNtCs5LEo9ZyIjY9_12speicherwald6routes5scans8get_list0s0_0B9_
FNDA:0,_RNCNCNvNtNtCs5LEo9ZyIjY9_12speicherwald6routes5scans8get_list0s1_0B9_
FNDA:0,_RNCNCNvNtNtCs5LEo9ZyIjY9_12speicherwald6routes5scans8get_list0s2_0B9_
FNDA:0,_RNCNCNvNtNtCs5LEo9ZyIjY9_12speicherwald6routes5scans8get_list0s3_0B9_
FNDA:0,_RNCNCNvNtNtCs5LEo9ZyIjY9_12speicherwald6routes5scans8get_list0s_0B9_
FNDA:0,_RNCNvNtNtCs5LEo9ZyIjY9_12speicherwald6routes5scans10get_recent0B7_
FNDA:0,_RNCNvNtNtCs5LEo9ZyIjY9_12speicherwald6routes5scans10list_scans0B7_
FNDA:0,_RNCNvNtNtCs5LEo9ZyIjY9_12speicherwald6routes5scans10sort_items0B7_
FNDA:0,_RNCNvNtNtCs5LEo9ZyIjY9_12speicherwald6routes5scans10sort_itemss_0B7_
FNDA:0,_RNCNvNtNtCs5LEo9ZyIjY9_12speicherwald6routes5scans11cancel_scan0B7_
FNDA:0,_RNCNvNtNtCs5LEo9ZyIjY9_12speicherwald6routes5scans11create_scan0B7_
FNDA:0,_RNCNvNtNtCs5LEo9ZyIjY9_12speicherwald6routes5scans11scan_events0B7_
FNDA:0,_RNCNvNtNtCs5LEo9ZyIjY9_12speicherwald6routes5scans14get_atime_secs0B7_
FNDA:0,_RNCNvNtNtCs5LEo9ZyIjY9_12speicherwald6routes5scans14get_mtime_secs0B7_
FNDA:0,_RNCNvNtNtCs5LEo9ZyIjY9_12speicherwald6routes5scans7get_top0B7_
FNDA:0,_RNCNvNtNtCs5LEo9ZyIjY9_12speicherwald6routes5scans8get_list0B7_
FNDA:0,_RNCNvNtNtCs5LEo9ZyIjY9_12speicherwald6routes5scans8get_scan0B7_
FNDA:0,_RNCNvNtNtCs5LEo9ZyIjY9_12speicherwald6routes5scans8get_tree0B7_
FNDA:0,_RNvNtNtCs5LEo9ZyIjY9_12speicherwald6routes5scans10get_recent
FNDA:0,_RNvNtNtCs5LEo9ZyIjY9_12speicherwald6routes5scans10list_scans
FNDA:0,_RNvNtNtCs5LEo9ZyIjY9_12speicherwald6routes5scans10sort_items
FNDA:0,_RNvNtNtCs5LEo9ZyIjY9_12speicherwald6routes5scans11cancel_scan
FNDA:0,_RNvNtNtCs5LEo9ZyIjY9_12speicherwald6routes5scans11create_scan
FNDA:0,_RNvNtNtCs5LEo9ZyIjY9_12speicherwald6routes5scans11get_logical
FNDA:0,_RNvNtNtCs5LEo9ZyIjY9_12speicherwald6routes5scans11scan_events
FNDA:0,_RNvNtNtCs5LEo9ZyIjY9_12speicherwald6routes5scans14chrono_now_utc
FNDA:0,_RNvNtNtCs5LEo9ZyIjY9_12speicherwald6routes5scans14get_atime_secs
FNDA:0,_RNvNtNtCs5LEo9ZyIjY9_12speicherwald6routes5scans14get_mtime_secs
FNDA:0,_RNvNtNtCs5LEo9ZyIjY9_12speicherwald6routes5scans20normalize_query_path
FNDA:0,_RNvNtNtCs5LEo9ZyIjY9_12speicherwald6routes5scans6is_dir
FNDA:0,_RNvNtNtCs5LEo9ZyIjY9_12speicherwald6routes5scans7get_top
FNDA:0,_RNvNtNtCs5LEo9ZyIjY9_12speicherwald6routes5scans8get_list
FNDA:0,_RNvNtNtCs5LEo9ZyIjY9_12speicherwald6routes5scans8get_name
FNDA:0,_RNvNtNtCs5LEo9ZyIjY9_12speicherwald6routes5scans8get_scan
FNDA:0,_RNvNtNtCs5LEo9ZyIjY9_12speicherwald6routes5scans8get_tree
FNDA:0,_RNvNtNtCs5LEo9ZyIjY9_12speicherwald6routes5scans9get_alloc
FNDA:0,_RNvNtNtCs5LEo9ZyIjY9_12speicherwald6routes5scans9get_atime
FNDA:0,_RNvNtNtCs5LEo9ZyIjY9_12speicherwald6routes5scans9get_mtime
FNDA:0,_RNCNCNCNvNtNtCs7btOnopyFbT_12speicherwald6routes5scans11scan_events0s_00Bb_
FNDA:0,_RNCNCNCNvNtNtCs7btOnopyFbT_12speicherwald6routes5scans14get_atime_secs000Bb_
FNDA:0,_RNCNCNCNvNtNtCs7btOnopyFbT_12speicherwald6routes5scans14get_atime_secs00s0_0Bb_
FNDA:0,_RNCNCNCNvNtNtCs7btOnopyFbT_12speicherwald6routes5scans14get_atime_secs00s_0Bb_
FNDA:0,_RNCNCNCNvNtNtCs7btOnopyFbT_12speicherwald6routes5scans14get_mtime_secs000Bb_
FNDA:0,_RNCNCNCNvNtNtCs7btOnopyFbT_12speicherwald6routes5scans14get_mtime_secs00s0_0Bb_
FNDA:0,_RNCNCNCNvNtNtCs7btOnopyFbT_12speicherwald6routes5scans14get_mtime_secs00s_0Bb_
FNDA:0,_RNCNCNvNtNtCs7btOnopyFbT_12speicherwald6routes5scans10get_recent00B9_
FNDA:0,_RNCNCNvNtNtCs7btOnopyFbT_12speicherwald6routes5scans10list_scans00B9_
FNDA:0,_RNCNCNvNtNtCs7btOnopyFbT_12speicherwald6routes5scans11create_scan00B9_
FNDA:0,_RNCNCNvNtNtCs7btOnopyFbT_12speicherwald6routes5scans11create_scan0s0_0B9_
FNDA:0,_RNCNCNvNtNtCs7btOnopyFbT_12speicherwald6routes5scans11create_scan0s1_0B9_
FNDA:0,_RNCNCNvNtNtCs7btOnopyFbT_12speicherwald6routes5scans11create_scan0s2_0B9_
FNDA:0,_RNCNCNvNtNtCs7btOnopyFbT_12speicherwald6routes5scans11create_scan0s3_0B9_
FNDA:0,_RNCNCNvNtNtCs7btOnopyFbT_12speicherwald6routes5scans11create_scan0s4_0B9_
FNDA:0,_RNCNCNvNtNtCs7btOnopyFbT_12speicherwald6routes5scans11create_scan0s_0B9_
FNDA:0,_RNCNCNvNtNtCs7btOnopyFbT_12speicherwald6routes5scans11scan_events00B9_
FNDA:0,_RNCNCNvNtNtCs7btOnopyFbT_12speicherwald6routes5scans11scan_events0s_0B9_
FNDA:0,_RNCNCNvNtNtCs7btOnopyFbT_12speicherwald6routes5scans14get_atime_secs00B9_
FNDA:0,_RNCNCNvNtNtCs7btOnopyFbT_12speicherwald6routes5scans14get_mtime_secs00B9_
FNDA:0,_RNCNCNvNtNtCs7btOnopyFbT_12speicherwald6routes5scans8get_list00B9_
FNDA:0,_RNCNCNvNtNtCs7btOnopyFbT_12speicherwald6routes5scans8get_list0s0_0B9_
FNDA:0,_RNCNCNvNtNtCs7btOnopyFbT_12speicherwald6routes5scans8get_list0s1_0B9_
FNDA:0,_RNCNCNvNtNtCs7btOnopyFbT_12speicherwald6routes5scans8get_list0s2_0B9_
FNDA:0,_RNCNCNvNtNtCs7btOnopyFbT_12speicherwald6routes5scans8get_list0s3_0B9_
FNDA:0,_RNCNCNvNtNtCs7btOnopyFbT_12speicherwald6routes5scans8get_list0s_0B9_
FNDA:0,_RNCNvNtNtCs7btOnopyFbT_12speicherwald6routes5scans10get_recent0B7_
FNDA:0,_RNCNvNtNtCs7btOnopyFbT_12speicherwald6routes5scans10list_scans0B7_
FNDA:0,_RNCNvNtNtCs7btOnopyFbT_12speicherwald6routes5scans10sort_items0B7_
FNDA:0,_RNCNvNtNtCs7btOnopyFbT_12speicherwald6routes5scans10sort_itemss_0B7_
FNDA:0,_RNCNvNtNtCs7btOnopyFbT_12speicherwald6routes5scans11cancel_scan0B7_
FNDA:0,_RNCNvNtNtCs7btOnopyFbT_12speicherwald6routes5scans11create_scan0B7_
FNDA:0,_RNCNvNtNtCs7btOnopyFbT_12speicherwald6routes5scans11scan_events0B7_
FNDA:0,_RNCNvNtNtCs7btOnopyFbT_12speicherwald6routes5scans14get_atime_secs0B7_
FNDA:0,_RNCNvNtNtCs7btOnopyFbT_12speicherwald6routes5scans14get_mtime_secs0B7_
FNDA:0,_RNCNvNtNtCs7btOnopyFbT_12speicherwald6routes5scans7get_top0B7_
FNDA:0,_RNCNvNtNtCs7btOnopyFbT_12speicherwald6routes5scans8get_list0B7_
FNDA:0,_RNCNvNtNtCs7btOnopyFbT_12speicherwald6routes5scans8get_scan0B7_
FNDA:0,_RNCNvNtNtCs7btOnopyFbT_12speicherwald6routes5scans8get_tree0B7_
FNDA:0,_RNvNtNtCs7btOnopyFbT_12speicherwald6routes5scans10get_recent
FNDA:0,_RNvNtNtCs7btOnopyFbT_12speicherwald6routes5scans10list_scans
FNDA:0,_RNvNtNtCs7btOnopyFbT_12speicherwald6routes5scans10sort_items
FNDA:0,_RNvNtNtCs7btOnopyFbT_12speicherwald6routes5scans11cancel_scan
FNDA:0,_RNvNtNtCs7btOnopyFbT_12speicherwald6routes5scans11create_scan
FNDA:0,_RNvNtNtCs7btOnopyFbT_12speicherwald6routes5scans11get_logical
FNDA:0,_RNvNtNtCs7btOnopyFbT_12speicherwald6routes5scans11scan_events
FNDA:0,_RNvNtNtCs7btOnopyFbT_12speicherwald6routes5scans14chrono_now_utc
FNDA:0,_RNvNtNtCs7btOnopyFbT_12speicherwald6routes5scans14get_atime_secs
FNDA:0,_RNvNtNtCs7btOnopyFbT_12speicherwald6routes5scans14get_mtime_secs
FNDA:0,_RNvNtNtCs7btOnopyFbT_12speicherwald6routes5scans20normalize_query_path
FNDA:0,_RNvNtNtCs7btOnopyFbT_12speicherwald6routes5scans6is_dir
FNDA:0,_RNvNtNtCs7btOnopyFbT_12speicherwald6routes5scans7get_top
FNDA:0,_RNvNtNtCs7btOnopyFbT_12speicherwald6routes5scans8get_list
FNDA:0,_RNvNtNtCs7btOnopyFbT_12speicherwald6routes5scans8get_name
FNDA:0,_RNvNtNtCs7btOnopyFbT_12speicherwald6routes5scans8get_scan
FNDA:0,_RNvNtNtCs7btOnopyFbT_12speicherwald6routes5scans8get_tree
FNDA:0,_RNvNtNtCs7btOnopyFbT_12speicherwald6routes5scans9get_alloc
FNDA:0,_RNvNtNtCs7btOnopyFbT_12speicherwald6routes5scans9get_atime
FNDA:0,_RNvNtNtCs7btOnopyFbT_12speicherwald6routes5scans9get_mtime
FNF:59
FNH:0
DA:31,0
DA:32,0
DA:33,0
DA:34,0
DA:35,0
DA:37,0
DA:38,0
DA:39,0
DA:40,0
DA:42,0
DA:43,0
DA:44,0
DA:47,0
DA:48,0
DA:52,0
DA:53,0
DA:56,0
DA:57,0
DA:58,0
DA:59,0
DA:60,0
DA:61,0
DA:62,0
DA:63,0
DA:66,0
DA:67,0
DA:68,0
DA:71,0
DA:74,0
DA:76,0
DA:78,0
DA:79,0
DA:80,0
DA:81,0
DA:82,0
DA:83,0
DA:84,0
DA:85,0
DA:86,0
DA:87,0
DA:88,0
DA:91,0
DA:92,0
DA:93,0
DA:94,0
DA:95,0
DA:96,0
DA:97,0
DA:98,0
DA:99,0
DA:100,0
DA:102,0
DA:103,0
DA:104,0
DA:105,0
DA:106,0
DA:107,0
DA:108,0
DA:109,0
DA:110,0
DA:113,0
DA:114,0
DA:115,0
DA:116,0
DA:117,0
DA:118,0
DA:119,0
DA:120,0
DA:121,0
DA:122,0
DA:123,0
DA:125,0
DA:126,0
DA:127,0
DA:128,0
DA:129,0
DA:130,0
DA:131,0
DA:132,0
DA:133,0
DA:134,0
DA:135,0
DA:136,0
DA:137,0
DA:138,0
DA:139,0
DA:140,0
DA:141,0
DA:143,0
DA:144,0
DA:145,0
DA:146,0
DA:147,0
DA:148,0
DA:149,0
DA:150,0
DA:151,0
DA:152,0
DA:153,0
DA:154,0
DA:155,0
DA:156,0
DA:157,0
DA:159,0
DA:160,0
DA:161,0
DA:162,0
DA:163,0
DA:164,0
DA:165,0
DA:167,0
DA:168,0
DA:169,0
DA:170,0
DA:171,0
DA:173,0
DA:174,0
DA:177,0
DA:178,0
DA:179,0
DA:180,0
DA:182,0
DA:183,0
DA:189,0
DA:190,0
DA:192,0
DA:196,0
DA:197,0
DA:201,0
DA:204,0
DA:205,0
DA:206,0
DA:207,0
DA:208,0
DA:209,0
DA:210,0
DA:211,0
DA:212,0
DA:214,0
DA:215,0
DA:216,0
DA:217,0
DA:218,0
DA:219,0
DA:220,0
DA:221,0
DA:222,0
DA:223,0
DA:224,0
DA:225,0
DA:227,0
DA:228,0
DA:229,0
DA:230,0
DA:231,0
DA:232,0
DA:233,0
DA:234,0
DA:235,0
DA:236,0
DA:237,0
DA:238,0
DA:239,0
DA:240,0
DA:242,0
DA:243,0
DA:245,0
DA:246,0
DA:247,0
DA:248,0
DA:249,0
DA:250,0
DA:251,0
DA:252,0
DA:253,0
DA:254,0
DA:255,0
DA:256,0
DA:257,0
DA:259,0
DA:260,0
DA:261,0
DA:262,0
DA:263,0
DA:264,0
DA:265,0
DA:266,0
DA:267,0
DA:268,0
DA:269,0
DA:270,0
DA:271,0
DA:273,0
DA:275,0
DA:282,0
DA:283,0
DA:284,0
DA:285,0
DA:286,0
DA:287,0
DA:291,0
DA:292,0
DA:293,0
DA:294,0
DA:295,0
DA:296,0
DA:298,0
DA:299,0
DA:300,0
DA:301,0
DA:303,0
DA:304,0
DA:307,0
DA:309,0
DA:310,0
DA:312,0
DA:313,0
DA:315,0
DA:316,0
DA:317,0
DA:318,0
DA:319,0
DA:320,0
DA:321,0
DA:322,0
DA:324,0
DA:328,0
DA:329,0
DA:330,0
DA:331,0
DA:332,0
DA:334,0
DA:335,0
DA:336,0
DA:337,0
DA:339,0
DA:342,0
DA:343,0
DA:346,0
DA:347,0
DA:348,0
DA:349,0
DA:350,0
DA:351,0
DA:352,0
DA:353,0
DA:354,0
DA:355,0
DA:356,0
DA:357,0
DA:358,0
DA:361,0
DA:362,0
DA:363,0
DA:364,0
DA:365,0
DA:366,0
DA:367,0
DA:368,0
DA:369,0
DA:370,0
DA:371,0
DA:372,0
DA:373,0
DA:375,0
DA:376,0
DA:377,0
DA:378,0
DA:379,0
DA:380,0
DA:381,0
DA:393,0
DA:394,0
DA:395,0
DA:396,0
DA:397,0
DA:399,0
DA:400,0
DA:401,0
DA:402,0
DA:403,0
DA:404,0
DA:405,0
DA:406,0
DA:407,0
DA:408,0
DA:409,0
DA:410,0
DA:412,0
DA:415,0
DA:416,0
DA:417,0
DA:418,0
DA:419,0
DA:421,0
DA:423,0
DA:424,0
DA:425,0
DA:426,0
DA:427,0
DA:428,0
DA:429,0
DA:430,0
DA:431,0
DA:432,0
DA:433,0
DA:434,0
DA:435,0
DA:436,0
DA:437,0
DA:438,0
DA:439,0
DA:440,0
DA:441,0
DA:442,0
DA:444,0
DA:445,0
DA:446,0
DA:449,0
DA:450,0
DA:452,0
DA:453,0
DA:454,0
DA:455,0
DA:456,0
DA:457,0
DA:458,0
DA:459,0
DA:460,0
DA:461,0
DA:462,0
DA:463,0
DA:464,0
DA:465,0
DA:467,0
DA:468,0
DA:469,0
DA:470,0
DA:471,0
DA:472,0
DA:473,0
DA:474,0
DA:475,0
DA:476,0
DA:477,0
DA:478,0
DA:479,0
DA:480,0
DA:481,0
DA:482,0
DA:485,0
DA:486,0
DA:496,0
DA:497,0
DA:498,0
DA:499,0
DA:500,0
DA:502,0
DA:503,0
DA:504,0
DA:505,0
DA:506,0
DA:507,0
DA:508,0
DA:509,0
DA:510,0
DA:511,0
DA:512,0
DA:513,0
DA:514,0
DA:515,0
DA:516,0
DA:517,0
DA:518,0
DA:519,0
DA:520,0
DA:521,0
DA:522,0
DA:523,0
DA:525,0
DA:526,0
DA:529,0
DA:530,0
DA:531,0
DA:532,0
DA:533,0
DA:534,0
DA:535,0
DA:536,0
DA:537,0
DA:538,0
DA:539,0
DA:540,0
DA:541,0
DA:542,0
DA:543,0
DA:544,0
DA:545,0
DA:546,0
DA:547,0
DA:548,0
DA:549,0
DA:550,0
DA:552,0
DA:553,0
DA:566,0
DA:567,0
DA:568,0
DA:569,0
DA:570,0
DA:571,0
DA:572,0
DA:575,0
DA:576,0
DA:577,0
DA:578,0
DA:579,0
DA:580,0
DA:581,0
DA:582,0
DA:584,0
DA:585,0
DA:586,0
DA:587,0
DA:588,0
DA:589,0
DA:590,0
DA:591,0
DA:592,0
DA:593,0
DA:594,0
DA:595,0
DA:596,0
DA:597,0
DA:598,0
DA:599,0
DA:600,0
DA:601,0
DA:602,0
DA:603,0
DA:604,0
DA:605,0
DA:606,0
DA:610,0
DA:611,0
DA:612,0
DA:613,0
DA:614,0
DA:615,0
DA:616,0
DA:617,0
DA:618,0
DA:619,0
DA:620,0
DA:621,0
DA:622,0
DA:623,0
DA:624,0
DA:625,0
DA:626,0
DA:627,0
DA:628,0
DA:629,0
DA:630,0
DA:631,0
DA:635,0
DA:636,0
DA:638,0
DA:639,0
DA:640,0
DA:641,0
DA:644,0
DA:645,0
DA:646,0
DA:647,0
DA:648,0
DA:649,0
DA:650,0
DA:651,0
DA:652,0
DA:653,0
DA:654,0
DA:655,0
DA:656,0
DA:657,0
DA:658,0
DA:659,0
DA:660,0
DA:661,0
DA:663,0
DA:664,0
DA:665,0
DA:666,0
DA:667,0
DA:668,0
DA:669,0
DA:670,0
DA:671,0
DA:672,0
DA:673,0
DA:674,0
DA:675,0
DA:676,0
DA:677,0
DA:678,0
DA:679,0
DA:680,0
DA:682,0
DA:683,0
DA:684,0
DA:685,0
DA:686,0
DA:687,0
DA:688,0
DA:689,0
DA:690,0
DA:691,0
DA:692,0
DA:693,0
DA:694,0
DA:695,0
DA:698,0
DA:699,0
DA:700,0
DA:701,0
DA:714,0
DA:715,0
DA:716,0
DA:717,0
DA:718,0
DA:719,0
DA:720,0
DA:722,0
DA:725,0
DA:726,0
DA:727,0
DA:728,0
DA:729,0
DA:730,0
DA:731,0
DA:732,0
DA:733,0
DA:734,0
DA:735,0
DA:736,0
DA:737,0
DA:738,0
DA:739,0
DA:740,0
DA:741,0
DA:743,0
DA:744,0
DA:745,0
DA:747,0
DA:748,0
DA:751,0
DA:752,0
DA:753,0
DA:754,0
DA:755,0
DA:756,0
DA:757,0
DA:758,0
DA:759,0
DA:760,0
DA:761,0
DA:762,0
DA:763,0
DA:764,0
DA:765,0
DA:766,0
DA:767,0
DA:768,0
DA:769,0
DA:770,0
DA:771,0
DA:772,0
DA:773,0
DA:774,0
DA:775,0
DA:776,0
DA:777,0
DA:778,0
DA:779,0
DA:781,0
DA:782,0
DA:783,0
DA:786,0
DA:787,0
DA:788,0
DA:789,0
DA:790,0
DA:791,0
DA:792,0
DA:793,0
DA:794,0
DA:795,0
DA:796,0
DA:797,0
DA:798,0
DA:799,0
DA:800,0
DA:801,0
DA:802,0
DA:803,0
DA:804,0
DA:805,0
DA:806,0
DA:807,0
DA:808,0
DA:809,0
DA:810,0
DA:811,0
DA:813,0
DA:815,0
DA:816,0
DA:817,0
DA:818,0
DA:819,0
DA:820,0
DA:822,0
DA:823,0
DA:825,0
DA:826,0
DA:827,0
DA:828,0
DA:829,0
DA:830,0
DA:831,0
DA:832,0
DA:833,0
DA:835,0
DA:836,0
DA:837,0
DA:838,0
DA:840,0
DA:841,0
DA:842,0
DA:843,0
DA:845,0
DA:846,0
DA:847,0
DA:848,0
DA:849,0
DA:851,0
DA:852,0
DA:853,0
DA:854,0
DA:855,0
DA:857,0
DA:858,0
DA:859,0
DA:860,0
DA:862,0
DA:863,0
DA:864,0
DA:865,0
DA:867,0
DA:869,0
DA:870,0
DA:871,0
DA:872,0
DA:874,0
BRF:0
BRH:0
LF:701
LH:0
end_of_record
SF:/app/src/routes/search.rs
FN:74,_RNCNvNtNtCs5LEo9ZyIjY9_12speicherwald6routes6search11search_scan0B7_
FN:69,_RNvNtNtCs5LEo9ZyIjY9_12speicherwald6routes6search11search_scan
FN:37,_RNvNtNtCs5LEo9ZyIjY9_12speicherwald6routes6search13default_limit
FN:74,_RNCNvNtNtCs7btOnopyFbT_12speicherwald6routes6search11search_scan0B7_
FN:69,_RNvNtNtCs7btOnopyFbT_12speicherwald6routes6search11search_scan
FN:37,_RNvNtNtCs7btOnopyFbT_12speicherwald6routes6search13default_limit
FNDA:0,_RNCNvNtNtCs5LEo9ZyIjY9_12speicherwald6routes6search11search_scan0B7_
FNDA:0,_RNvNtNtCs5LEo9ZyIjY9_12speicherwald6routes6search11search_scan
FNDA:0,_RNvNtNtCs5LEo9ZyIjY9_12speicherwald6routes6search13default_limit
FNDA:0,_RNCNvNtNtCs7btOnopyFbT_12speicherwald6routes6search11search_scan0B7_
FNDA:0,_RNvNtNtCs7btOnopyFbT_12speicherwald6routes6search11search_scan
FNDA:0,_RNvNtNtCs7btOnopyFbT_12speicherwald6routes6search13default_limit
FNF:3
FNH:0
DA:37,0
DA:38,0
DA:39,0
DA:69,0
DA:70,0
DA:71,0
DA:72,0
DA:73,0
DA:74,0
DA:76,0
DA:77,0
DA:78,0
DA:79,0
DA:81,0
DA:82,0
DA:83,0
DA:85,0
DA:86,0
DA:87,0
DA:89,0
DA:90,0
DA:91,0
DA:95,0
DA:96,0
DA:99,0
DA:100,0
DA:101,0
DA:102,0
DA:103,0
DA:104,0
DA:105,0
DA:106,0
DA:107,0
DA:108,0
DA:109,0
DA:111,0
DA:114,0
DA:115,0
DA:116,0
DA:117,0
DA:118,0
DA:119,0
DA:120,0
DA:121,0
DA:122,0
DA:123,0
DA:124,0
DA:125,0
DA:126,0
DA:127,0
DA:128,0
DA:130,0
DA:133,0
DA:136,0
DA:139,0
DA:140,0
DA:141,0
DA:142,0
DA:143,0
DA:144,0
DA:145,0
DA:146,0
DA:147,0
DA:148,0
DA:149,0
DA:150,0
DA:151,0
DA:152,0
DA:153,0
DA:154,0
DA:155,0
DA:156,0
DA:157,0
DA:158,0
DA:159,0
DA:160,0
DA:161,0
DA:162,0
DA:163,0
DA:164,0
DA:165,0
DA:167,0
DA:168,0
DA:169,0
DA:170,0
DA:171,0
DA:172,0
DA:173,0
DA:174,0
DA:175,0
DA:176,0
DA:177,0
DA:178,0
DA:179,0
DA:180,0
DA:181,0
DA:184,0
DA:185,0
DA:186,0
DA:187,0
DA:188,0
DA:189,0
DA:194,0
DA:195,0
BRF:0
BRH:0
LF:105
LH:0
end_of_record
SF:/app/src/scanner/mod.rs
FN:264,_RNCNCNCNvNtCs5LEo9ZyIjY9_12speicherwald7scanner8run_scan000B9_
FN:767,_RNCNCNvNtCs5LEo9ZyIjY9_12speicherwald7scanner15persist_batches00B7_
FN:787,_RNCNCNvNtCs5LEo9ZyIjY9_12speicherwald7scanner15persist_batches0s_0B7_
FN:105,_RNCNCNvNtCs5LEo9ZyIjY9_12speicherwald7scanner8run_scan00B7_
FN:744,_RNCNvNtCs5LEo9ZyIjY9_12speicherwald7scanner15persist_batches0B5_
FN:730,_RNCNvNtCs5LEo9ZyIjY9_12speicherwald7scanner18parent_path_string0B5_
FN:63,_RNCNvNtCs5LEo9ZyIjY9_12speicherwald7scanner8run_scan0B5_
FN:733,_RNvNtCs5LEo9ZyIjY9_12speicherwald7scanner10calc_depth
FN:614,_RNvNtCs5LEo9ZyIjY9_12speicherwald7scanner11is_unc_pathB3_
FN:590,_RNvNtCs5LEo9ZyIjY9_12speicherwald7scanner13build_globset
FN:628,_RNvNtCs5LEo9ZyIjY9_12speicherwald7scanner15is_network_pathB3_
FN:738,_RNvNtCs5LEo9ZyIjY9_12speicherwald7scanner15persist_batches
FN:678,_RNvNtCs5LEo9ZyIjY9_12speicherwald7scanner16is_reparse_point
FN:605,_RNvNtCs5LEo9ZyIjY9_12speicherwald7scanner16matches_excludes
FN:729,_RNvNtCs5LEo9ZyIjY9_12speicherwald7scanner18parent_path_string
FN:666,_RNvNtCs5LEo9ZyIjY9_12speicherwald7scanner19is_hidden_or_system
FN:724,_RNvNtCs5LEo9ZyIjY9_12speicherwald7scanner25unsafe_get_allocated_size
FN:51,_RNvNtCs5LEo9ZyIjY9_12speicherwald7scanner8run_scan
FN:407,_RNvNtCs5LEo9ZyIjY9_12speicherwald7scanner8scan_dir
FN:264,_RNCNCNCNvNtCs7btOnopyFbT_12speicherwald7scanner8run_scan000B9_
FN:767,_RNCNCNvNtCs7btOnopyFbT_12speicherwald7scanner15persist_batches00B7_
FN:787,_RNCNCNvNtCs7btOnopyFbT_12speicherwald7scanner15persist_batches0s_0B7_
FN:105,_RNCNCNvNtCs7btOnopyFbT_12speicherwald7scanner8run_scan00B7_
FN:744,_RNCNvNtCs7btOnopyFbT_12speicherwald7scanner15persist_batches0B5_
FN:730,_RNCNvNtCs7btOnopyFbT_12speicherwald7scanner18parent_path_string0B5_
FN:63,_RNCNvNtCs7btOnopyFbT_12speicherwald7scanner8run_scan0B5_
FN:733,_RNvNtCs7btOnopyFbT_12speicherwald7scanner10calc_depth
FN:614,_RNvNtCs7btOnopyFbT_12speicherwald7scanner11is_unc_pathB3_
FN:590,_RNvNtCs7btOnopyFbT_12speicherwald7scanner13build_globset
FN:628,_RNvNtCs7btOnopyFbT_12speicherwald7scanner15is_network_pathB3_
FN:738,_RNvNtCs7btOnopyFbT_12speicherwald7scanner15persist_batches
FN:678,_RNvNtCs7btOnopyFbT_12speicherwald7scanner16is_reparse_point
FN:605,_RNvNtCs7btOnopyFbT_12speicherwald7scanner16matches_excludes
FN:729,_RNvNtCs7btOnopyFbT_12speicherwald7scanner18parent_path_string
FN:666,_RNvNtCs7btOnopyFbT_12speicherwald7scanner19is_hidden_or_system
FN:724,_RNvNtCs7btOnopyFbT_12speicherwald7scanner25unsafe_get_allocated_size
FN:51,_RNvNtCs7btOnopyFbT_12speicherwald7scanner8run_scan
FN:407,_RNvNtCs7btOnopyFbT_12speicherwald7scanner8scan_dir
FNDA:0,_RNCNCNCNvNtCs5LEo9ZyIjY9_12speicherwald7scanner8run_scan000B9_
FNDA:0,_RNCNCNvNtCs5LEo9ZyIjY9_12speicherwald7scanner15persist_batches00B7_
FNDA:0,_RNCNCNvNtCs5LEo9ZyIjY9_12speicherwald7scanner15persist_batches0s_0B7_
FNDA:0,_RNCNCNvNtCs5LEo9ZyIjY9_12speicherwald7scanner8run_scan00B7_
FNDA:0,_RNCNvNtCs5LEo9ZyIjY9_12speicherwald7scanner15persist_batches0B5_
FNDA:0,_RNCNvNtCs5LEo9ZyIjY9_12speicherwald7scanner18parent_path_string0B5_
FNDA:0,_RNCNvNtCs5LEo9ZyIjY9_12speicherwald7scanner8run_scan0B5_
FNDA:0,_RNvNtCs5LEo9ZyIjY9_12speicherwald7scanner10calc_depth
FNDA:0,_RNvNtCs5LEo9ZyIjY9_12speicherwald7scanner11is_unc_pathB3_
FNDA:0,_RNvNtCs5LEo9ZyIjY9_12speicherwald7scanner13build_globset
FNDA:0,_RNvNtCs5LEo9ZyIjY9_12speicherwald7scanner15is_network_pathB3_
FNDA:0,_RNvNtCs5LEo9ZyIjY9_12speicherwald7scanner15persist_batches
FNDA:0,_RNvNtCs5LEo9ZyIjY9_12speicherwald7scanner16is_reparse_point
FNDA:0,_RNvNtCs5LEo9ZyIjY9_12speicherwald7scanner16matches_excludes
FNDA:0,_RNvNtCs5LEo9ZyIjY9_12speicherwald7scanner18parent_path_string
FNDA:0,_RNvNtCs5LEo9ZyIjY9_12speicherwald7scanner19is_hidden_or_system
FNDA:0,_RNvNtCs5LEo9ZyIjY9_12speicherwald7scanner25unsafe_get_allocated_size
FNDA:0,_RNvNtCs5LEo9ZyIjY9_12speicherwald7scanner8run_scan
FNDA:0,_RNvNtCs5LEo9ZyIjY9_12speicherwald7scanner8scan_dir
FNDA:0,_RNCNCNCNvNtCs7btOnopyFbT_12speicherwald7scanner8run_scan000B9_
FNDA:0,_RNCNCNvNtCs7btOnopyFbT_12speicherwald7scanner15persist_batches00B7_
FNDA:0,_RNCNCNvNtCs7btOnopyFbT_12speicherwald7scanner15persist_batches0s_0B7_
FNDA:0,_RNCNCNvNtCs7btOnopyFbT_12speicherwald7scanner8run_scan00B7_
FNDA:0,_RNCNvNtCs7btOnopyFbT_12speicherwald7scanner15persist_batches0B5_
FNDA:0,_RNCNvNtCs7btOnopyFbT_12speicherwald7scanner18parent_path_string0B5_
FNDA:0,_RNCNvNtCs7btOnopyFbT_12speicherwald7scanner8run_scan0B5_
FNDA:0,_RNvNtCs7btOnopyFbT_12speicherwald7scanner10calc_depth
FNDA:0,_RNvNtCs7btOnopyFbT_12speicherwald7scanner11is_unc_pathB3_
FNDA:0,_RNvNtCs7btOnopyFbT_12speicherwald7scanner13build_globset
FNDA:0,_RNvNtCs7btOnopyFbT_12speicherwald7scanner15is_network_pathB3_
FNDA:0,_RNvNtCs7btOnopyFbT_12speicherwald7scanner15persist_batches
FNDA:0,_RNvNtCs7btOnopyFbT_12speicherwald7scanner16is_reparse_point
FNDA:0,_RNvNtCs7btOnopyFbT_12speicherwald7scanner16matches_excludes
FNDA:0,_RNvNtCs7btOnopyFbT_12speicherwald7scanner18parent_path_string
FNDA:0,_RNvNtCs7btOnopyFbT_12speicherwald7scanner19is_hidden_or_system
FNDA:0,_RNvNtCs7btOnopyFbT_12speicherwald7scanner25unsafe_get_allocated_size
FNDA:0,_RNvNtCs7btOnopyFbT_12speicherwald7scanner8run_scan
FNDA:0,_RNvNtCs7btOnopyFbT_12speicherwald7scanner8scan_dir
FNF:19
FNH:0
DA:51,0
DA:52,0
DA:53,0
DA:54,0
DA:55,0
DA:56,0
DA:57,0
DA:58,0
DA:59,0
DA:60,0
DA:61,0
DA:62,0
DA:63,0
DA:64,0
DA:65,0
DA:66,0
DA:69,0
DA:70,0
DA:71,0
DA:72,0
DA:73,0
DA:74,0
DA:75,0
DA:77,0
DA:78,0
DA:79,0
DA:81,0
DA:82,0
DA:83,0
DA:84,0
DA:85,0
DA:86,0
DA:87,0
DA:88,0
DA:89,0
DA:90,0
DA:91,0
DA:92,0
DA:93,0
DA:94,0
DA:96,0
DA:97,0
DA:98,0
DA:99,0
DA:100,0
DA:101,0
DA:102,0
DA:103,0
DA:104,0
DA:105,0
DA:106,0
DA:107,0
DA:108,0
DA:109,0
DA:110,0
DA:111,0
DA:114,0
DA:115,0
DA:116,0
DA:117,0
DA:118,0
DA:119,0
DA:121,0
DA:122,0
DA:123,0
DA:124,0
DA:125,0
DA:126,0
DA:127,0
DA:128,0
DA:129,0
DA:130,0
DA:133,0
DA:135,0
DA:136,0
DA:137,0
DA:138,0
DA:139,0
DA:140,0
DA:141,0
DA:142,0
DA:143,0
DA:146,0
DA:147,0
DA:148,0
DA:149,0
DA:150,0
DA:151,0
DA:152,0
DA:153,0
DA:154,0
DA:155,0
DA:156,0
DA:157,0
DA:158,0
DA:159,0
DA:160,0
DA:161,0
DA:162,0
DA:164,0
DA:165,0
DA:166,0
DA:167,0
DA:168,0
DA:169,0
DA:170,0
DA:171,0
DA:172,0
DA:175,0
DA:176,0
DA:178,0
DA:179,0
DA:180,0
DA:181,0
DA:182,0
DA:183,0
DA:184,0
DA:185,0
DA:186,0
DA:187,0
DA:188,0
DA:189,0
DA:190,0
DA:191,0
DA:192,0
DA:193,0
DA:194,0
DA:195,0
DA:196,0
DA:197,0
DA:198,0
DA:199,0
DA:200,0
DA:201,0
DA:203,0
DA:205,0
DA:206,0
DA:207,0
DA:209,0
DA:210,0
DA:211,0
DA:212,0
DA:213,0
DA:214,0
DA:215,0
DA:216,0
DA:217,0
DA:218,0
DA:219,0
DA:220,0
DA:221,0
DA:222,0
DA:223,0
DA:224,0
DA:227,0
DA:228,0
DA:229,0
DA:230,0
DA:231,0
DA:232,0
DA:234,0
DA:235,0
DA:236,0
DA:237,0
DA:238,0
DA:239,0
DA:240,0
DA:241,0
DA:242,0
DA:243,0
DA:247,0
DA:248,0
DA:249,0
DA:250,0
DA:251,0
DA:252,0
DA:253,0
DA:254,0
DA:255,0
DA:256,0
DA:257,0
DA:258,0
DA:259,0
DA:260,0
DA:261,0
DA:262,0
DA:263,0
DA:264,0
DA:265,0
DA:266,0
DA:267,0
DA:268,0
DA:269,0
DA:270,0
DA:271,0
DA:272,0
DA:273,0
DA:274,0
DA:275,0
DA:276,0
DA:277,0
DA:278,0
DA:279,0
DA:280,0
DA:281,0
DA:283,0
DA:284,0
DA:285,0
DA:286,0
DA:288,0
DA:289,0
DA:290,0
DA:291,0
DA:292,0
DA:293,0
DA:294,0
DA:295,0
DA:296,0
DA:297,0
DA:298,0
DA:299,0
DA:303,0
DA:304,0
DA:305,0
DA:306,0
DA:307,0
DA:308,0
DA:309,0
DA:310,0
DA:311,0
DA:312,0
DA:313,0
DA:314,0
DA:315,0
DA:316,0
DA:317,0
DA:318,0
DA:319,0
DA:320,0
DA:321,0
DA:322,0
DA:323,0
DA:324,0
DA:325,0
DA:328,0
DA:330,0
DA:332,0
DA:333,0
DA:335,0
DA:336,0
DA:337,0
DA:338,0
DA:340,0
DA:341,0
DA:342,0
DA:343,0
DA:344,0
DA:347,0
DA:348,0
DA:349,0
DA:350,0
DA:351,0
DA:353,0
DA:356,0
DA:357,0
DA:358,0
DA:359,0
DA:361,0
DA:362,0
DA:363,0
DA:364,0
DA:365,0
DA:366,0
DA:367,0
DA:368,0
DA:370,0
DA:371,0
DA:372,0
DA:373,0
DA:374,0
DA:375,0
DA:376,0
DA:379,0
DA:380,0
DA:381,0
DA:382,0
DA:383,0
DA:384,0
DA:385,0
DA:386,0
DA:387,0
DA:388,0
DA:389,0
DA:390,0
DA:391,0
DA:392,0
DA:393,0
DA:394,0
DA:395,0
DA:401,0
DA:403,0
DA:404,0
DA:407,0
DA:408,0
DA:409,0
DA:410,0
DA:411,0
DA:412,0
DA:413,0
DA:414,0
DA:415,0
DA:416,0
DA:417,0
DA:418,0
DA:419,0
DA:420,0
DA:422,0
DA:423,0
DA:424,0
DA:426,0
DA:427,0
DA:428,0
DA:430,0
DA:431,0
DA:432,0
DA:435,0
DA:436,0
DA:437,0
DA:438,0
DA:439,0
DA:440,0
DA:442,0
DA:443,0
DA:444,0
DA:445,0
DA:447,0
DA:448,0
DA:449,0
DA:451,0
DA:452,0
DA:453,0
DA:454,0
DA:455,0
DA:456,0
DA:457,0
DA:458,0
DA:459,0
DA:460,0
DA:461,0
DA:462,0
DA:464,0
DA:465,0
DA:469,0
DA:470,0
DA:471,0
DA:472,0
DA:473,0
DA:474,0
DA:475,0
DA:476,0
DA:477,0
DA:478,0
DA:479,0
DA:480,0
DA:481,0
DA:482,0
DA:483,0
DA:484,0
DA:485,0
DA:486,0
DA:487,0
DA:488,0
DA:489,0
DA:490,0
DA:491,0
DA:492,0
DA:493,0
DA:494,0
DA:495,0
DA:496,0
DA:497,0
DA:498,0
DA:499,0
DA:500,0
DA:501,0
DA:502,0
DA:503,0
DA:504,0
DA:505,0
DA:506,0
DA:507,0
DA:508,0
DA:509,0
DA:511,0
DA:513,0
DA:514,0
DA:515,0
DA:518,0
DA:519,0
DA:520,0
DA:521,0
DA:522,0
DA:523,0
DA:524,0
DA:526,0
DA:528,0
DA:529,0
DA:530,0
DA:531,0
DA:532,0
DA:533,0
DA:534,0
DA:535,0
DA:536,0
DA:539,0
DA:540,0
DA:541,0
DA:542,0
DA:543,0
DA:544,0
DA:545,0
DA:546,0
DA:547,0
DA:548,0
DA:551,0
DA:552,0
DA:553,0
DA:554,0
DA:555,0
DA:556,0
DA:557,0
DA:560,0
DA:561,0
DA:562,0
DA:563,0
DA:564,0
DA:565,0
DA:566,0
DA:567,0
DA:570,0
DA:571,0
DA:572,0
DA:573,0
DA:576,0
DA:577,0
DA:578,0
DA:579,0
DA:580,0
DA:581,0
DA:582,0
DA:583,0
DA:584,0
DA:585,0
DA:587,0
DA:588,0
DA:590,0
DA:591,0
DA:592,0
DA:593,0
DA:594,0
DA:595,0
DA:598,0
DA:599,0
DA:600,0
DA:602,0
DA:603,0
DA:605,0
DA:606,0
DA:607,0
DA:608,0
DA:609,0
DA:610,0
DA:611,0
DA:614,0
DA:623,0
DA:625,0
DA:628,0
DA:653,0
DA:655,0
DA:666,0
DA:668,0
DA:669,0
DA:678,0
DA:679,0
DA:680,0
DA:724,0
DA:726,0
DA:727,0
DA:729,0
DA:730,0
DA:731,0
DA:733,0
DA:735,0
DA:736,0
DA:738,0
DA:739,0
DA:740,0
DA:741,0
DA:742,0
DA:743,0
DA:744,0
DA:745,0
DA:746,0
DA:747,0
DA:748,0
DA:749,0
DA:758,0
DA:759,0
DA:762,0
DA:763,0
DA:764,0
DA:767,0
DA:768,0
DA:769,0
DA:770,0
DA:771,0
DA:772,0
DA:773,0
DA:774,0
DA:775,0
DA:776,0
DA:777,0
DA:778,0
DA:782,0
DA:783,0
DA:784,0
DA:787,0
DA:788,0
DA:789,0
DA:790,0
DA:791,0
DA:792,0
DA:793,0
DA:794,0
DA:797,0
DA:798,0
DA:799,0
DA:800,0
DA:801,0
BRF:0
BRH:0
LF:546
LH:0
end_of_record
SF:/app/src/state.rs
FN:29,_RNvMNtCs5LEo9ZyIjY9_12speicherwald5stateNtB2_8AppState3new
FN:29,_RNvMNtCs7btOnopyFbT_12speicherwald5stateNtB2_8AppState3new
FNDA:0,_RNvMNtCs5LEo9ZyIjY9_12speicherwald5stateNtB2_8AppState3new
FNDA:0,_RNvMNtCs7btOnopyFbT_12speicherwald5stateNtB2_8AppState3new
FNF:1
FNH:0
DA:29,0
DA:30,0
DA:31,0
DA:32,0
DA:33,0
DA:36,0
DA:37,0
DA:38,0
DA:39,0
DA:40,0
DA:41,0
DA:42,0
DA:43,0
BRF:0
BRH:0
LF:13
LH:0
end_of_record
SF:/app/src/types.rs
FN:95,_RNvXNtCs5LEo9ZyIjY9_12speicherwald5typesNtB2_11ScanOptionsNtNtCs1p5UDGgVI4d_4core7default7Default7default
FN:95,_RNvXNtCs7btOnopyFbT_12speicherwald5typesNtB2_11ScanOptionsNtNtCs1p5UDGgVI4d_4core7default7Default7default
FNDA:0,_RNvXNtCs5LEo9ZyIjY9_12speicherwald5typesNtB2_11ScanOptionsNtNtCs1p5UDGgVI4d_4core7default7Default7default
FNDA:0,_RNvXNtCs7btOnopyFbT_12speicherwald5typesNtB2_11ScanOptionsNtNtCs1p5UDGgVI4d_4core7default7Default7default
FNF:1
FNH:0
DA:95,0
DA:96,0
DA:97,0
DA:98,0
DA:99,0
DA:100,0
DA:101,0
DA:102,0
DA:103,0
DA:104,0
DA:105,0
BRF:0
BRH:0
LF:11
LH:0
end_of_record